******************************************************************************
                  TI ARM Linker Unix v18.1.4                   
******************************************************************************
>> Linked Thu Jul  4 17:15:57 2019

OUTPUT FILE NAME:   <UDPSuccess_recv.out>
ENTRY POINT SYMBOL: "_c_int00"  address: 00020618


MEMORY CONFIGURATION

         name            origin    length      used     unused   attr    fill
----------------------  --------  ---------  --------  --------  ----  --------
  VECTORS               00000000   00000020  00000020  00000000     X
  KERNEL                00000020   00008000  00005248  00002db8  R  X
  FLASH0                00008020   001f7fe0  00018d5c  001df284  R  X
  FLASH1                00200000   00200000  00000000  00200000  R  X
  STACKS                08000000   00008000  00000000  00008000  RW  
  KRAM                  08008000   00000800  00000154  000006ac  RW  
  RAM                   08008800   00077800  00014d1e  00062ae2  RW  


SEGMENT ALLOCATION MAP

run origin  load origin   length   init length attrs members
----------  ----------- ---------- ----------- ----- -------
00000000    00000000    00005268   00005268    r-x
  00000000    00000000    00000020   00000020    r-x .intvecs
  00000020    00000020    000051e0   000051e0    r-x .kernelTEXT
  00005200    00005200    00000068   00000068    r-- .cinit
00008020    00008020    00018d60   00018d60    r-x
  00008020    00008020    00018a3c   00018a3c    r-x .text
  00020a60    00020a60    00000320   00000320    r-- .const
08008000    08008000    00000154   00000000    rw-
  08008000    08008000    00000154   00000000    rw- .kernelBSS
08008800    08008800    00014d1e   00000000    rw-
  08008800    08008800    00012ce4   00000000    rw- .bss
  0801b4e4    0801b4e4    00002000   00000000    rw- .kernelHEAP
  0801d4e4    0801d4e4    0000003a   00000000    rw- .data


SECTION ALLOCATION MAP

 output                                  attributes/
section   page    origin      length       input sections
--------  ----  ----------  ----------   ----------------
.intvecs   0    00000000    00000020     
                  00000000    00000020     HL_sys_intvecs.obj (.intvecs)

.kernelTEXT 
*          0    00000020    000051e0     
                  00000020    00002bdc     os_tasks.obj (.kernelTEXT)
                  00002bfc    000011dc     os_queue.obj (.kernelTEXT)
                  00003dd8    0000081c     os_event_groups.obj (.kernelTEXT)
                  000045f4    000004b0     os_portasm.obj (.kernelTEXT)
                  00004aa4    000003dc     os_port.obj (.kernelTEXT)
                  00004e80    00000380     os_heap.obj (.kernelTEXT)

.cinit     0    00005200    00000068     
                  00005200    00000020     (.cinit..data.load) [load image, compression = lzss]
                  00005220    0000000c     (__TI_handler_table)
                  0000522c    00000009     (.cinit..kernelBSS.load) [load image, compression = lzss]
                  00005235    00000003     --HOLE-- [fill = 0]
                  00005238    00000008     (.cinit..bss.load) [load image, compression = zero_init]
                  00005240    00000008     (.cinit..kernelHEAP.load) [load image, compression = zero_init]
                  00005248    00000020     (__TI_cinit_table)

.text      0    00008020    00018a3c     
                  00008020    00010374     lwiplib.obj (.text)
                  00018394    00001818     HL_emac.obj (.text)
                  00019bac    000009dc     HL_pinmux.obj (.text)
                  0001a588    000009a0     os_mpu_wrappers.obj (.text)
                  0001af28    0000099c     HL_system.obj (.text)
                  0001b8c4    0000093c     HL_sys_vim.obj (.text)
                  0001c200    00000870     HL_sci.obj (.text)
                  0001ca70    0000078c     HL_esm.obj (.text)
                  0001d1fc    000006f4     HL_phy_dp83640.obj (.text)
                  0001d8f0    00000664     HL_errata_SSWF021_45.obj (.text)
                  0001df54    00000528     timers.obj (.text)
                  0001e47c    00000484     HL_gio.obj (.text)
                  0001e900    000003c4     HL_sys_core.obj (.text)
                  0001ecc4    000003bc     lwip_main.obj (.text)
                  0001f080    0000036c     HL_sys_mpu.obj (.text)
                  0001f3ec    0000033c     HL_sys_vim.obj (.text:retain)
                  0001f728    000002a4     HL_sys_main.obj (.text)
                  0001f9cc    00000278     os_heap.obj (.text)
                  0001fc44    00000238     os_list.obj (.text)
                  0001fe7c    000001c4     HL_mdio.obj (.text)
                  00020040    00000178     HL_esm.obj (.text:retain)
                  000201b8    00000164     os_tasks.obj (.text)
                  0002031c    0000013c     os_port.obj (.text)
                  00020458    000000e0     HL_notification.obj (.text)
                  00020538    000000e0     rtsv7R4_T_be_v3D16_eabi.lib : s_floor.c.obj (.text:floor)
                  00020618    000000d4     HL_sys_startup.obj (.text:retain)
                  000206ec    000000a0     lwip_main.obj (.text:retain)
                  0002078c    0000009c     rtsv7R4_T_be_v3D16_eabi.lib : memcpy_t2.asm.obj (.text)
                  00020828    0000007a                                 : memset_t2.asm.obj (.text)
                  000208a2    0000006c                                 : copy_decompress_lzss.c.obj (.text:decompress:lzss:__TI_decompress_lzss)
                  0002090e    00000002                                 : div0.asm.obj (.text)
                  00020910    00000054                                 : i_div32.asm.obj (.text)
                  00020964    00000050                                 : u_div32.asm.obj (.text)
                  000209b4    00000044                                 : autoinit.c.obj (.text:__TI_auto_init_nobinit_nopinit:__TI_auto_init_nobinit_nopinit)
                  000209f8    00000026                                 : memcmp.c.obj (.text:memcmp)
                  00020a1e    00000016                                 : strlen.c.obj (.text:strlen)
                  00020a34    0000000e                                 : copy_decompress_none.c.obj (.text:decompress:none:__TI_decompress_none)
                  00020a42    0000000c                                 : copy_zero_init.c.obj (.text:decompress:ZI:__TI_zero_init)
                  00020a4e    00000002     --HOLE-- [fill = 0]
                  00020a50    00000004     HL_sys_startup.obj (.text)
                  00020a54    00000004     rtsv7R4_T_be_v3D16_eabi.lib : exit.c.obj (.text:abort:abort)
                  00020a58    00000004     HL_sys_phantom.obj (.text:retain)

.const     0    00020a60    00000320     
                  00020a60    00000200     HL_sys_vim.obj (.const:s_vim_init)
                  00020c60    00000078     lwiplib.obj (.const:.string)
                  00020cd8    0000002c     lwiplib.obj (.const:tcp_state_str)
                  00020d04    00000015     HL_sys_main.obj (.const:.string:$P$T0$1)
                  00020d19    00000001     --HOLE-- [fill = 0]
                  00020d1a    00000010     lwiplib.obj (.const:memp_num)
                  00020d2a    00000010     lwiplib.obj (.const:memp_sizes)
                  00020d3a    00000002     --HOLE-- [fill = 0]
                  00020d3c    00000010     lwiplib.obj (.const:tcp_pcb_lists)
                  00020d4c    0000000d     lwiplib.obj (.const:.string:tcp_backoff)
                  00020d59    00000007     lwiplib.obj (.const:.string:tcp_persist_backoff)
                  00020d60    00000006     lwiplib.obj (.const:ethbroadcast)
                  00020d66    00000006     lwiplib.obj (.const:ethzero)
                  00020d6c    00000004     lwip_main.obj (.const:.string:$P$T0$2)
                  00020d70    00000004     lwip_main.obj (.const:.string:$P$T1$3)
                  00020d74    00000004     lwip_main.obj (.const:.string:$P$T2$4)
                  00020d78    00000004     lwiplib.obj (.const:ip_addr_any)
                  00020d7c    00000004     lwiplib.obj (.const:ip_addr_broadcast)

.kernelBSS 
*          0    08008000    00000154     UNINITIALIZED
                  08008000    00000120     os_tasks.obj (.kernelBSS:uninit)
                  08008120    00000034     os_tasks.obj (.kernelBSS:init)

.bss       0    08008800    00012ce4     UNINITIALIZED
                  08008800    00007814     (.common:ram_heap)
                  08010014    00007594     lwiplib.obj (.bss:memp_memory)
                  080175a8    00003b24     HL_emac.obj (.bss:pbuf_array)
                  0801b0cc    000000ea     (.common:lwip_stats)
                  0801b1b6    00000001     (.common:pbuf_free_ooseq_pending)
                  0801b1b7    00000001     (.common:tcp_active_pcbs_changed)
                  0801b1b8    000000c8     lwiplib.obj (.bss:arp_table)
                  0801b280    00000054     lwiplib.obj (.bss:locatorData)
                  0801b2d4    00000050     HL_sci.obj (.bss:g_sciTransfer_t)
                  0801b324    00000044     lwiplib.obj (.bss:hdkif_data)
                  0801b368    0000003c     (.common:hdkif_data)
                  0801b3a4    00000037     lwiplib.obj (.bss)
                  0801b3db    00000001     --HOLE--
                  0801b3dc    00000034     lwiplib.obj (.bss:hdkNetIF)
                  0801b410    00000028     (.common:dhcp_rx_options_val)
                  0801b438    00000020     lwiplib.obj (.bss:memp_tab)
                  0801b458    00000010     lwiplib.obj (.bss:inseg)
                  0801b468    00000010     lwiplib.obj (.bss:str$3)
                  0801b478    0000000c     timers.obj (.bss)
                  0801b484    0000000c     (.common:dhcp_rx_options_given)
                  0801b490    00000008     os_heap.obj (.bss:xStart)
                  0801b498    00000004     lwip_main.obj (.bss)
                  0801b49c    00000004     (.common:current_header)
                  0801b4a0    00000004     (.common:current_iphdr_dest)
                  0801b4a4    00000004     (.common:current_iphdr_src)
                  0801b4a8    00000004     (.common:current_netif)
                  0801b4ac    00000004     (.common:netif_default)
                  0801b4b0    00000004     (.common:netif_list)
                  0801b4b4    00000004     (.common:tcp_active_pcbs)
                  0801b4b8    00000004     (.common:tcp_bound_pcbs)
                  0801b4bc    00000004     (.common:tcp_input_pcb)
                  0801b4c0    00000004     (.common:tcp_listen_pcbs)
                  0801b4c4    00000004     (.common:tcp_ticks)
                  0801b4c8    00000004     (.common:tcp_tmp_pcb)
                  0801b4cc    00000004     (.common:tcp_tw_pcbs)
                  0801b4d0    00000004     (.common:txtIPAddrItoA)
                  0801b4d4    00000004     (.common:udp_pcbs)
                  0801b4d8    00000004     (.common:xTask1Handle)
                  0801b4dc    00000004     (.common:xTask2Handle)
                  0801b4e0    00000004     (.common:xTask4Handle)

.kernelHEAP 
*          0    0801b4e4    00002000     UNINITIALIZED
                  0801b4e4    00002000     os_heap.obj (.kernelHEAP)

.data      0    0801d4e4    0000003a     UNINITIALIZED
                  0801d4e4    00000010     os_heap.obj (.data)
                  0801d4f4    0000000c     lwiplib.obj (.data)
                  0801d500    00000008     HL_sys_main.obj (.data)
                  0801d508    00000008     lwip_main.obj (.data)
                  0801d510    00000008     os_port.obj (.data)
                  0801d518    00000006     HL_sys_main.obj (.data:emacAddress)

MODULE SUMMARY

       Module                       code     ro data   rw data
       ------                       ----     -------   -------
    ./example/hdk/src/
       lwip_main.obj                1116     12        16     
    +--+----------------------------+--------+---------+---------+
       Total:                       1116     12        16     
                                                              
    ./lwip-1.4.1/ports/hdk/
       lwiplib.obj                  66420    252       61719  
    +--+----------------------------+--------+---------+---------+
       Total:                       66420    252       61719  
                                                              
    ./lwip-1.4.1/src/core/
       timers.obj                   1320     0         12     
    +--+----------------------------+--------+---------+---------+
       Total:                       1320     0         12     
                                                              
    ./source/
       HL_emac.obj                  6168     0         15200  
       os_tasks.obj                 11584    0         340    
       os_heap.obj                  1528     0         8216   
       os_queue.obj                 4572     0         0      
       HL_sys_vim.obj               3192     512       0      
       HL_pinmux.obj                2524     0         0      
       os_mpu_wrappers.obj          2464     0         0      
       HL_system.obj                2460     0         0      
       HL_esm.obj                   2308     0         0      
       HL_sci.obj                   2160     0         80     
       os_event_groups.obj          2076     0         0      
       HL_phy_dp83640.obj           1780     0         0      
       HL_errata_SSWF021_45.obj     1636     0         0      
       os_port.obj                  1304     0         8      
       os_portasm.obj               1200     0         0      
       HL_gio.obj                   1156     0         0      
       HL_sys_core.obj              964      0         0      
       HL_sys_mpu.obj               876      0         0      
       HL_sys_main.obj              676      21        26     
       os_list.obj                  568      0         0      
       HL_mdio.obj                  452      0         0      
       HL_notification.obj          224      0         0      
       HL_sys_startup.obj           216      0         0      
       HL_sys_intvecs.obj           32       0         0      
       HL_sys_phantom.obj           4        0         0      
    +--+----------------------------+--------+---------+---------+
       Total:                       52124    533       23870  
                                                              
    /home/koitt/ti/ccsv8/tools/compiler/ti-cgt-arm_18.1.4.LTS/lib/rtsv7R4_T_be_v3D16_eabi.lib
       s_floor.c.obj                224      0         0      
       memcpy_t2.asm.obj            156      0         0      
       memset_t2.asm.obj            122      0         0      
       copy_decompress_lzss.c.obj   108      0         0      
       i_div32.asm.obj              84       0         0      
       u_div32.asm.obj              80       0         0      
       autoinit.c.obj               68       0         0      
       memcmp.c.obj                 38       0         0      
       strlen.c.obj                 22       0         0      
       copy_decompress_none.c.obj   14       0         0      
       copy_zero_init.c.obj         12       0         0      
       exit.c.obj                   4        0         0      
       div0.asm.obj                 2        0         0      
    +--+----------------------------+--------+---------+---------+
       Total:                       934      0         0      
                                                              
       Linker Generated:            0        101       0      
    +--+----------------------------+--------+---------+---------+
       Grand Total:                 121914   898       85617  


LINKER GENERATED COPY TABLES

__TI_cinit_table @ 00005248 records: 4, size/record: 8, table size: 32
	.data: load addr=00005200, load size=00000020 bytes, run addr=0801d4e4, run size=0000003a bytes, compression=lzss
	.kernelBSS: load addr=0000522c, load size=00000009 bytes, run addr=08008000, run size=00000154 bytes, compression=lzss
	.bss: load addr=00005238, load size=00000008 bytes, run addr=08008800, run size=00012ce4 bytes, compression=zero_init
	.kernelHEAP: load addr=00005240, load size=00000008 bytes, run addr=0801b4e4, run size=00002000 bytes, compression=zero_init


LINKER GENERATED HANDLER TABLE

__TI_handler_table @ 00005220 records: 3, size/record: 4, table size: 12
	index: 0, handler: __TI_decompress_lzss
	index: 1, handler: __TI_decompress_none
	index: 2, handler: __TI_zero_init


GLOBAL SYMBOLS: SORTED ALPHABETICALLY BY Name 

address   name                                  
-------   ----                                  
00020a55  C$$EXIT                               
0001d354  Dp83640AutoNegotiate                  
0001d618  Dp83640DisableLoopback                
0001d580  Dp83640EnableLoopback                 
0001d6a4  Dp83640GetTimeStamp                   
0001d1fc  Dp83640IDGet                          
0001d274  Dp83640LinkStatusGet                  
0001d4e4  Dp83640PartnerAbilityGet              
0001d8c8  Dp83640PartnerSpdGet                  
0001d50c  Dp83640Reset                          
000206ec  EMACCore0RxIsr                        
00020738  EMACCore0TxIsr                        
000188bc  EMACCoreIntAck                        
0001905c  EMACDMAInit                           
00018d68  EMACDisableIdleState                  
00018df4  EMACDisableLoopback                   
0001858c  EMACDuplexSet                         
00018d44  EMACEnableIdleState                   
00018d8c  EMACEnableLoopback                    
00018c6c  EMACFrameSelect                       
00019a08  EMACGetConfigValue                    
00019254  EMACHWInit                            
00018694  EMACInit                              
00018ad8  EMACInstConfig                        
00018ac0  EMACIntVectorGet                      
00018b3c  EMACLinkSetup                         
00018834  EMACMACAddrSet                        
000187d0  EMACMACSrcAddrSet                     
00018568  EMACMIIDisable                        
00018544  EMACMIIEnable                         
00018a94  EMACNumFreeBufSet                     
00018504  EMACRMIISpeedSet                      
00018f58  EMACReadNetStatRegisters              
00019868  EMACReceive                           
00018978  EMACRxBroadCastDisable                
00018934  EMACRxBroadCastEnable                 
00018908  EMACRxCPWrite                         
00018620  EMACRxDisable                         
00018604  EMACRxEnable                          
00018ec8  EMACRxFlowControlDisable              
00018ea4  EMACRxFlowControlEnable               
00018668  EMACRxHdrDescPtrWrite                 
000184a8  EMACRxIntPulseDisable                 
0001844c  EMACRxIntPulseEnable                  
00018fcc  EMACRxIntStat                         
000189f8  EMACRxMultiCastDisable                
000189b4  EMACRxMultiCastEnable                 
00018f04  EMACRxSetFlowThreshold                
00018c40  EMACRxTeardown                        
00018a64  EMACRxUnicastClear                    
00018a34  EMACRxUnicastSet                      
00018cf8  EMACSoftReset                         
00018eec  EMACSwizzleData                       
00019550  EMACTransmit                          
000188dc  EMACTxCPWrite                         
000185e8  EMACTxDisable                         
000185cc  EMACTxEnable                          
00018e80  EMACTxFlowControlDisable              
00018e5c  EMACTxFlowControlEnable               
0001863c  EMACTxHdrDescPtrWrite                 
00019750  EMACTxIntHandler                      
000183f0  EMACTxIntPulseDisable                 
00018394  EMACTxIntPulseEnable                  
00018f7c  EMACTxIntStat                         
00018c98  EMACTxPrioritySelect                  
00018c14  EMACTxTeardown                        
0001ed04  EMAC_LwIP_Main                        
0001ef70  IntMasterIRQDisable                   
0001ef68  IntMasterIRQEnable                    
0001ef78  IntMasterStatusGet                    
00017ed4  LocatorConfig                         
00020018  MDIODisable                           
0001fff4  MDIOEnable                            
0001ffac  MDIOInit                              
0001ff7c  MDIOPhyAliveStatusGet                 
0001ff94  MDIOPhyLinkStatusGet                  
0001fe7c  MDIOPhyRegRead                        
0001ff14  MDIOPhyRegWrite                       
0001a758  MPU_eTaskGetState                     
0001a8c0  MPU_pcTaskGetName                     
0001a9a0  MPU_pvTaskGetThreadLocalStoragePointer
0001aab8  MPU_ulTaskNotifyTake                  
0001ac74  MPU_uxQueueMessagesWaiting            
0001aca8  MPU_uxQueueSpacesAvailable            
0001a894  MPU_uxTaskGetNumberOfTasks            
0001a928  MPU_uxTaskGetStackHighWaterMark       
0001a724  MPU_uxTaskPriorityGet                 
0001aefc  MPU_vEventGroupDelete                 
0001acdc  MPU_vQueueDelete                      
0001a630  MPU_vTaskAllocateMPURegions           
0001a690  MPU_vTaskDelay                        
0001a6bc  MPU_vTaskDelayUntil                   
0001a664  MPU_vTaskDelete                       
0001a78c  MPU_vTaskPrioritySet                  
0001a7ec  MPU_vTaskResume                       
0001a95c  MPU_vTaskSetThreadLocalStoragePointer 
0001ab30  MPU_vTaskSetTimeOutState              
0001a7c0  MPU_vTaskSuspend                      
0001a818  MPU_vTaskSuspendAll                   
0001ae20  MPU_xEventGroupClearBits              
0001ad98  MPU_xEventGroupCreate                 
0001ae64  MPU_xEventGroupSetBits                
0001aea8  MPU_xEventGroupSync                   
0001adc4  MPU_xEventGroupWaitBits               
0001ad08  MPU_xQueueGenericCreate               
0001ac20  MPU_xQueueGenericReceive              
0001ad54  MPU_xQueueGenericReset                
0001abcc  MPU_xQueueGenericSend                 
0001a6f0  MPU_xTaskAbortDelay                   
0001ab5c  MPU_xTaskCheckForTimeOut              
0001a588  MPU_xTaskCreate                       
0001a5ec  MPU_xTaskCreateRestricted             
0001aa10  MPU_xTaskGenericNotify                
0001a8f4  MPU_xTaskGetHandle                    
0001a9e4  MPU_xTaskGetIdleTaskHandle            
0001aba0  MPU_xTaskGetSchedulerState            
0001a868  MPU_xTaskGetTickCount                 
0001aafc  MPU_xTaskNotifyStateClear             
0001aa64  MPU_xTaskNotifyWait                   
0001a83c  MPU_xTaskResumeAll                    
UNDEFED   SHT$$INIT_ARRAY$$Base                 
UNDEFED   SHT$$INIT_ARRAY$$Limit                
00005248  __TI_CINIT_Base                       
00005268  __TI_CINIT_Limit                      
00005220  __TI_Handler_Table_Base               
0000522c  __TI_Handler_Table_Limit              
0001ecbc  __TI_PINIT_Base                       
0001ecc0  __TI_PINIT_Limit                      
000209b5  __TI_auto_init_nobinit_nopinit        
000208a3  __TI_decompress_lzss                  
00020a35  __TI_decompress_none                  
ffffffff  __TI_pprof_out_hndl                   
ffffffff  __TI_prof_data_size                   
ffffffff  __TI_prof_data_start                  
00000000  __TI_static_base__                    
00020a43  __TI_zero_init                        
00020910  __aeabi_idiv                          
0002090f  __aeabi_idiv0                         
00020910  __aeabi_idivmod                       
0002090f  __aeabi_ldiv0                         
00020829  __aeabi_memclr                        
00020829  __aeabi_memclr4                       
00020829  __aeabi_memclr8                       
0002078d  __aeabi_memcpy                        
0002078d  __aeabi_memcpy4                       
0002078d  __aeabi_memcpy8                       
0002082b  __aeabi_memset                        
0002082b  __aeabi_memset4                       
0002082b  __aeabi_memset8                       
00020964  __aeabi_uidiv                         
00020964  __aeabi_uidivmod                      
ffffffff  __binit__                             
ffffffff  __c_args__                            
00020618  _c_int00                              
0001ec70  _cacheDisable_                        
0001ec2c  _cacheEnable_                         
0001ec0c  _checkMemInitOn_                      
0001eb18  _coreClearAuxiliaryDataFault_         
0001eb2c  _coreClearAuxiliaryInstructionFault_  
0001eaf0  _coreClearDataFaultAddress_           
0001eac8  _coreClearDataFault_                  
0001eb04  _coreClearInstructionFaultAddress_    
0001eadc  _coreClearInstructionFault_           
0001eaa0  _coreDisableEventBusExport_           
0001ea90  _coreEnableEventBusExport_            
0001eab0  _coreEnableIrqVicOffset_              
0001ea78  _coreEnableVfp_                       
0001eb10  _coreGetAuxiliaryDataFault_           
0001eb24  _coreGetAuxiliaryInstructionFault_    
0001eae8  _coreGetDataFaultAddress_             
0001eac0  _coreGetDataFault_                    
0001eafc  _coreGetInstructionFaultAddress_      
0001ead4  _coreGetInstructionFault_             
0001e900  _coreInitRegisters_                   
0001ea0c  _coreInitStackPointer_                
0001ec94  _dCacheInvalidate_                    
0001eb38  _disable_IRQ_interrupt_               
0001eb40  _enable_IRQ_interrupt_                
0001eb48  _enable_interrupt_                    
0001d8f0  _errata_SSWF021_45_both_plls          
0001dae4  _errata_SSWF021_45_pll1               
0001dc5c  _errata_SSWF021_45_pll2               
0001eb50  _esmCcmErrorsClear_                   
0001ea58  _getCPSRValue_                        
0001ea60  _gotoCPUIdle_                         
0001eca8  _iCacheInvalidate_                    
0001ebd8  _memInit_                             
0001f394  _mpuAreRegionsSeparate_               
0001f378  _mpuDisableBackgroundRegion_          
0001f350  _mpuDisable_                          
0001f368  _mpuEnableBackgroundRegion_           
0001f338  _mpuEnable_                           
0001f388  _mpuGetNumberOfRegions_               
0001f3b8  _mpuGetRegionBaseAddress_             
0001f3d8  _mpuGetRegionPermission_              
0001f3cc  _mpuGetRegionType_                    
0001f3a8  _mpuGetRegion_                        
0001f080  _mpuInit_                             
0001f3b0  _mpuSetRegionBaseAddress_             
0001f3e4  _mpuSetRegionSizeRegister_            
0001f3c0  _mpuSetRegionTypeAndPermission_       
0001f3a0  _mpuSetRegion_                        
UNDEFED   _system_post_cinit                    
00020a55  abort                                 
ffffffff  binit                                 
0801d508  countEMACCore0RxIsr                   
0801d50c  countEMACCore0TxIsr                   
0801b49c  current_header                        
0801b4a0  current_iphdr_dest                    
0801b4a4  current_iphdr_src                     
0801b4a8  current_netif                         
0001b818  customTrimLPO                         
000086b8  dhcp_cleanup                          
00008270  dhcp_coarse_tmr                       
00008304  dhcp_fine_tmr                         
00008878  dhcp_inform                           
000089c4  dhcp_network_changed                  
00009164  dhcp_release                          
00008de8  dhcp_renew                            
0801b484  dhcp_rx_options_given                 
0801b410  dhcp_rx_options_val                   
0000868c  dhcp_set_struct                       
000086ec  dhcp_start                            
000092d8  dhcp_stop                             
00020490  dmaGroupANotification                 
00001f18  eTaskConfirmSleepModeStatus           
00000890  eTaskGetState                         
0801d518  emacAddress                           
0801d504  emacPhyAddress                        
00020528  emacRxNotification                    
00020518  emacTxNotification                    
00020504  epcCAMFullNotification                
00020508  epcFIFOFullNotification               
000204f0  eqepNotification                      
0001cc80  esmActivateNormalOperation            
0001cdcc  esmClearStatus                        
0001ce30  esmClearStatusBuffer                  
0001ce0c  esmClearStatusUpper                   
0001cc2c  esmDisableError                       
0001cc54  esmDisableErrorUpper                  
0001ccd4  esmDisableInterrupt                   
0001ccfc  esmDisableInterruptUpper              
0001cbe8  esmEnableError                        
0001cc10  esmEnableErrorUpper                   
0001cc90  esmEnableInterrupt                    
0001ccb8  esmEnableInterruptUpper               
0001cf60  esmEnterSelfTest                      
0001cbcc  esmError                              
0001d038  esmGetConfigValue                     
0001ce6c  esmGetStatus                          
0001cf38  esmGetStatusBuffer                    
0001cef0  esmGetStatusUpper                     
00020458  esmGroup1Notification                 
0002046c  esmGroup2Notification                 
00020480  esmGroup3Notification                 
00020040  esmHighInterrupt                      
0001ca70  esmInit                               
0001cfe8  esmSelfTestStatus                     
0001ce4c  esmSetCounterPreloadValue             
0001cd18  esmSetInterruptLevel                  
0001cd8c  esmSetInterruptLevelUpper             
0001cc70  esmTriggerErrorPinReset               
00015ff4  etharp_cleanup_netif                  
00016078  etharp_find_addr                      
0001646c  etharp_output                         
000166ec  etharp_query                          
00016b48  etharp_request                        
000159e4  etharp_tmr                            
00020d60  ethbroadcast                          
00016ba4  ethernet_input                        
00020d66  ethzero                               
000204cc  etpwmNotification                     
000204dc  etpwmTripNotification                 
00020539  floor                                 
00020539  floorl                                
0001b2c0  getResetSource                        
0001e6dc  gioDisableNotification                
0001e674  gioEnableNotification                 
0001e5dc  gioGetBit                             
0001e744  gioGetConfigValue                     
0001e604  gioGetPort                            
0001e47c  gioInit                               
000204a4  gioNotification                       
0001e56c  gioSetBit                             
0001e54c  gioSetDirection                       
0001e5bc  gioSetPort                            
0001e61c  gioToggleBit                          
00020a50  handlePLLLockFail                     
0801b368  hdkif_data                            
0001775c  hdkif_init                            
00017d14  hdkif_link_status                     
00016e18  hdkif_macaddrset                      
00017ce8  hdkif_netif_status                    
000177fc  hdkif_rx_inthandler                   
00016da8  hdkif_swizzle_data                    
00016e04  hdkif_swizzle_rxp                     
00016df0  hdkif_swizzle_txp                     
00017b88  hdkif_tx_inthandler                   
00014350  icmp_dest_unreach                     
00013ff0  icmp_input                            
00014974  inet_chksum                           
0001499c  inet_chksum_pbuf                      
000145c4  inet_chksum_pseudo                    
00014788  inet_chksum_pseudo_partial            
0001edb8  iommLock                              
0001edd4  iommMuxEnableMdio                     
0001ee3c  iommMuxEnableMii                      
0001edf0  iommMuxEnableRmii                     
0001ed9c  iommUnlock                            
00015324  ip4_addr_isbroadcast                  
000153f4  ip4_addr_netmask_valid                
00020d78  ip_addr_any                           
00020d7c  ip_addr_broadcast                     
00014b94  ip_input                              
000152a8  ip_output                             
00015024  ip_output_if                          
00014a98  ip_route                              
00015488  ipaddr_addr                           
000154b4  ipaddr_aton                           
000157e0  ipaddr_ntoa                           
000157fc  ipaddr_ntoa_r                         
00018070  lwIPInit                              
000182cc  lwIPLinkStatusGet                     
000182ac  lwIPNetIfStatusGet                    
000182f4  lwIPRxIntHandler                      
00018314  lwIPTxIntHandler                      
0000a1d0  lwip_init                             
0801b0cc  lwip_stats                            
0001f728  main                                  
0001b0f0  mapClocks                             
0000aa80  mem_calloc                            
0000a3e8  mem_free                              
0000a338  mem_init                              
0000a7ac  mem_malloc                            
0000a4c0  mem_trim                              
000209f9  memcmp                                
0002078d  memcpy                                
0000ad40  memp_free                             
0000aad0  memp_init                             
0000ac38  memp_malloc                           
00020831  memset                                
00019bac  muxInit                               
0000adc0  netif_add                             
0801b4ac  netif_default                         
0000afd0  netif_find                            
0000adb8  netif_init                            
0801b4b0  netif_list                            
0000aee0  netif_remove                          
0000ae9c  netif_set_addr                        
0000b260  netif_set_default                     
0000b2e4  netif_set_down                        
0000b1e8  netif_set_gw                          
0000b084  netif_set_ipaddr                      
0000b3a0  netif_set_link_down                   
0000b32c  netif_set_link_up                     
0000b228  netif_set_netmask                     
0000b288  netif_set_up                          
0000b480  pbuf_alloc                            
0000bc54  pbuf_cat                              
0000bce4  pbuf_chain                            
0000bbd0  pbuf_clen                             
0000c220  pbuf_coalesce                         
0000bd98  pbuf_copy                             
0000bf94  pbuf_copy_partial                     
0000bd08  pbuf_dechain                          
0000babc  pbuf_free                             
0000b3d8  pbuf_free_ooseq                       
0801b1b6  pbuf_free_ooseq_pending               
0000c290  pbuf_get_at                           
0000b92c  pbuf_header                           
0000c334  pbuf_memcmp                           
0000c448  pbuf_memfind                          
0000b7e8  pbuf_realloc                          
0000bc1c  pbuf_ref                              
0000c4f4  pbuf_strstr                           
0000c104  pbuf_take                             
00001354  pcTaskGetName                         
00016d4c  perf_init                             
0001b03c  periphInit                            
00020a58  phantomInterrupt                      
00004a7c  prvMpuDisable                         
00004a64  prvMpuEnable                          
00004a4c  prvMpuSetRegion                       
00004e80  pvPortMalloc                          
00001ff8  pvTaskGetThreadLocalStoragePointer    
08008120  pxCurrentTCB                          
00004aa4  pxPortInitialiseStack                 
08008800  ram_heap                              
0000c6bc  raw_bind                              
0000c6f8  raw_connect                           
0000c574  raw_input                             
0000c98c  raw_new                               
0000c734  raw_recv                              
0000c8e4  raw_remove                            
0000c8c0  raw_send                              
0000c764  raw_sendto                            
00000000  resetEntry                            
0001c8bc  sci1GetConfigValue                    
0001c730  sciDisableLoopback                    
0001c7e4  sciDisableNotification                
0001ef84  sciDisplayText                        
0001c6fc  sciEnableLoopback                     
0001c74c  sciEnableNotification                 
0001c87c  sciEnterResetState                    
0001c89c  sciExitResetState                     
0001c200  sciInit                               
0001c574  sciIsIdleDetected                     
0001c558  sciIsRxReady                          
0001c3a8  sciIsTxReady                          
0001efe4  sciNotification                       
0001c5ec  sciReceive                            
0001c5c0  sciReceiveByte                        
0001c590  sciRxError                            
0001c3f4  sciSend                               
0001c3c4  sciSendByte                           
0001c30c  sciSetBaudrate                        
0001c2ec  sciSetFunctional                      
0001affc  setupFlash                            
0001af28  setupPLL                              
0001ecc4  smallDelay                            
0000c9f8  stats_init                            
00020a1f  strlen                                
00016d5c  sys_arch_protect                      
00016d74  sys_arch_unprotect                    
0001e33c  sys_check_timeouts                    
00016d90  sys_now                               
0001e440  sys_restart_timeouts                  
0001e09c  sys_timeout                           
0001e058  sys_timeouts_init                     
0001e240  sys_untimeout                         
0001b3e8  systemGetConfigValue                  
0001b21c  systemInit                            
0001b290  systemPowerDown                       
0000cf1c  tcp_abandon                           
0000d060  tcp_abort                             
0000e78c  tcp_accept                            
0801b4b4  tcp_active_pcbs                       
0801b1b7  tcp_active_pcbs_changed               
0000e52c  tcp_alloc                             
0000e70c  tcp_arg                               
00020d4c  tcp_backoff                           
0000d078  tcp_bind                              
0801b4b8  tcp_bound_pcbs                        
0000ce08  tcp_close                             
0000d64c  tcp_connect                           
0000ea64  tcp_debug_state_str                   
0000e9f8  tcp_eff_send_mss                      
0001248c  tcp_enqueue_flags                     
0000e76c  tcp_err                               
0000e038  tcp_fasttmr                           
0000c9fc  tcp_init                              
0000ea8c  tcp_input                             
0801b4bc  tcp_input_pcb                         
0001314c  tcp_keepalive                         
0801b4c0  tcp_listen_pcbs                       
0000d22c  tcp_listen_with_backlog               
0000e6fc  tcp_new                               
0000e9d0  tcp_next_iss                          
000127c8  tcp_output                            
00020d3c  tcp_pcb_lists                         
0000e7dc  tcp_pcb_purge                         
0000e8a4  tcp_pcb_remove                        
00020d59  tcp_persist_backoff                   
0000e7ac  tcp_poll                              
0000e11c  tcp_process_refused_data              
0000e72c  tcp_recv                              
0000e33c  tcp_recv_null                         
0000d4ec  tcp_recved                            
00012f90  tcp_rexmit                            
00013070  tcp_rexmit_fast                       
00012ef8  tcp_rexmit_rto                        
00012de8  tcp_rst                               
0000e2f0  tcp_seg_copy                          
0000e290  tcp_seg_free                          
0000e250  tcp_segs_free                         
000126f4  tcp_send_empty_ack                    
0001192c  tcp_send_fin                          
0000e74c  tcp_sent                              
0000e2d0  tcp_setprio                           
0000ce40  tcp_shutdown                          
0000d940  tcp_slowtmr                           
00020cd8  tcp_state_str                         
0801b4c4  tcp_ticks                             
0001dfa4  tcp_timer_needed                      
0801b4c8  tcp_tmp_pcb                           
0000ca00  tcp_tmr                               
0801b4cc  tcp_tw_pcbs                           
0000d410  tcp_update_rcv_ann_wnd                
00011d8c  tcp_write                             
00013208  tcp_zero_window_probe                 
0001af88  trimLPO                               
0801b4d0  txtIPAddrItoA                         
0001f8d8  udpTask                               
00013c3c  udp_bind                              
00013da0  udp_connect                           
00013ea0  udp_disconnect                        
0001f884  udp_echo_recv                         
000133ac  udp_init                              
00013464  udp_input                             
00013fb0  udp_new                               
0801b4d4  udp_pcbs                              
00013ed8  udp_recv                              
00013f08  udp_remove                            
00013968  udp_send                              
00013994  udp_sendto                            
00013a00  udp_sendto_if                         
0801d510  ulCriticalNesting                     
00004974  ulPortCountLeadingZeros               
0801d514  ulTaskHasFPUContext                   
00002390  ulTaskNotifyTake                      
0001fdf0  uxListRemove                          
00003910  uxQueueMessagesWaiting                
00003994  uxQueueMessagesWaitingFromISR         
00003948  uxQueueSpacesAvailable                
00001348  uxTaskGetNumberOfTasks                
0000223c  uxTaskGetStackHighWaterMark           
00000994  uxTaskPriorityGet                     
000009d8  uxTaskPriorityGetFromISR              
00002354  uxTaskResetEventItemValue             
0000456c  vEventGroupClearBitsCallback          
000044cc  vEventGroupDelete                     
00004550  vEventGroupSetBitsCallback            
0001fc44  vListInitialise                       
0001fc9c  vListInitialiseItem                   
0001fd2c  vListInsert                           
0001fcb8  vListInsertEnd                        
00004e4c  vPortEndScheduler                     
000050d8  vPortFree                             
000051e8  vPortInitialiseBlocks                 
00004968  vPortInitialiseFPSCR                  
00004868  vPortPreemptiveTick                   
0000497c  vPortSWI                              
000045f8  vPortStartFirstTask                   
00004bb8  vPortStoreTaskMPUSettings             
00004774  vPortYeildWithinAPI                   
00004688  vPortYieldProcessor                   
000039c4  vQueueDelete                          
0001f84c  vTask1                                
0001f868  vTask2                                
00002064  vTaskAllocateMPURegions               
0000080c  vTaskDelay                            
000006a0  vTaskDelayUntil                       
00000538  vTaskDelete                           
00001084  vTaskEndScheduler                     
00001f08  vTaskMissedYield                      
00002954  vTaskNotifyGiveFromISR                
00001ad0  vTaskPlaceOnEventList                 
00001b14  vTaskPlaceOnUnorderedEventList        
00000a20  vTaskPrioritySet                      
00000e20  vTaskResume                           
00001f94  vTaskSetThreadLocalStoragePointer     
00001d90  vTaskSetTimeOutState                  
00000fec  vTaskStartScheduler                   
0000166c  vTaskStepTick                         
00000c18  vTaskSuspend                          
000010a0  vTaskSuspendAll                       
000019f0  vTaskSwitchContext                    
0001b998  vimChannelMap                         
0001bc04  vimDisableInterrupt                   
0001f3ec  vimECCErrorHandler                    
0001ba3c  vimEnableInterrupt                    
0001bcb0  vimGetConfigValue                     
0001b8c4  vimInit                               
00004268  xEventGroupClearBits                  
00003dd8  xEventGroupCreate                     
000042ec  xEventGroupGetBitsFromISR             
0000431c  xEventGroupSetBits                    
00003e14  xEventGroupSync                       
00004014  xEventGroupWaitBits                   
000051d0  xPortGetFreeHeapSize                  
000051dc  xPortGetMinimumEverFreeHeapSize       
00004e2c  xPortStartScheduler                   
00002d24  xQueueGenericCreate                   
000033fc  xQueueGenericReceive                  
00002bfc  xQueueGenericReset                    
00002e40  xQueueGenericSend                     
00003100  xQueueGenericSendFromISR              
00003290  xQueueGiveFromISR                     
00003cfc  xQueueIsQueueEmptyFromISR             
00003d88  xQueueIsQueueFullFromISR              
0000381c  xQueuePeekFromISR                     
000036d4  xQueueReceiveFromISR                  
0801d500  xSemaphore                            
0801b4d8  xTask1Handle                          
0801b4dc  xTask2Handle                          
0801b4e0  xTask4Handle                          
000016c8  xTaskAbortDelay                       
00001dd0  xTaskCheckForTimeOut                  
000000fc  xTaskCreate                           
00000020  xTaskCreateRestricted                 
00002580  xTaskGenericNotify                    
00002754  xTaskGenericNotifyFromISR             
0000152c  xTaskGetHandle                        
00001634  xTaskGetIdleTaskHandle                
00002304  xTaskGetSchedulerState                
00001308  xTaskGetTickCount                     
00001324  xTaskGetTickCountFromISR              
000017c8  xTaskIncrementTick                    
000202a0  xTaskNotifyStateClear                 
00002468  xTaskNotifyWait                       
00001b98  xTaskRemoveFromEventList              
00001c88  xTaskRemoveFromUnorderedEventList     
00001158  xTaskResumeAll                        
00000f04  xTaskResumeFromISR                    


GLOBAL SYMBOLS: SORTED BY Symbol Address 

address   name                                  
-------   ----                                  
00000000  __TI_static_base__                    
00000000  resetEntry                            
00000020  xTaskCreateRestricted                 
000000fc  xTaskCreate                           
00000538  vTaskDelete                           
000006a0  vTaskDelayUntil                       
0000080c  vTaskDelay                            
00000890  eTaskGetState                         
00000994  uxTaskPriorityGet                     
000009d8  uxTaskPriorityGetFromISR              
00000a20  vTaskPrioritySet                      
00000c18  vTaskSuspend                          
00000e20  vTaskResume                           
00000f04  xTaskResumeFromISR                    
00000fec  vTaskStartScheduler                   
00001084  vTaskEndScheduler                     
000010a0  vTaskSuspendAll                       
00001158  xTaskResumeAll                        
00001308  xTaskGetTickCount                     
00001324  xTaskGetTickCountFromISR              
00001348  uxTaskGetNumberOfTasks                
00001354  pcTaskGetName                         
0000152c  xTaskGetHandle                        
00001634  xTaskGetIdleTaskHandle                
0000166c  vTaskStepTick                         
000016c8  xTaskAbortDelay                       
000017c8  xTaskIncrementTick                    
000019f0  vTaskSwitchContext                    
00001ad0  vTaskPlaceOnEventList                 
00001b14  vTaskPlaceOnUnorderedEventList        
00001b98  xTaskRemoveFromEventList              
00001c88  xTaskRemoveFromUnorderedEventList     
00001d90  vTaskSetTimeOutState                  
00001dd0  xTaskCheckForTimeOut                  
00001f08  vTaskMissedYield                      
00001f18  eTaskConfirmSleepModeStatus           
00001f94  vTaskSetThreadLocalStoragePointer     
00001ff8  pvTaskGetThreadLocalStoragePointer    
00002064  vTaskAllocateMPURegions               
0000223c  uxTaskGetStackHighWaterMark           
00002304  xTaskGetSchedulerState                
00002354  uxTaskResetEventItemValue             
00002390  ulTaskNotifyTake                      
00002468  xTaskNotifyWait                       
00002580  xTaskGenericNotify                    
00002754  xTaskGenericNotifyFromISR             
00002954  vTaskNotifyGiveFromISR                
00002bfc  xQueueGenericReset                    
00002d24  xQueueGenericCreate                   
00002e40  xQueueGenericSend                     
00003100  xQueueGenericSendFromISR              
00003290  xQueueGiveFromISR                     
000033fc  xQueueGenericReceive                  
000036d4  xQueueReceiveFromISR                  
0000381c  xQueuePeekFromISR                     
00003910  uxQueueMessagesWaiting                
00003948  uxQueueSpacesAvailable                
00003994  uxQueueMessagesWaitingFromISR         
000039c4  vQueueDelete                          
00003cfc  xQueueIsQueueEmptyFromISR             
00003d88  xQueueIsQueueFullFromISR              
00003dd8  xEventGroupCreate                     
00003e14  xEventGroupSync                       
00004014  xEventGroupWaitBits                   
00004268  xEventGroupClearBits                  
000042ec  xEventGroupGetBitsFromISR             
0000431c  xEventGroupSetBits                    
000044cc  vEventGroupDelete                     
00004550  vEventGroupSetBitsCallback            
0000456c  vEventGroupClearBitsCallback          
000045f8  vPortStartFirstTask                   
00004688  vPortYieldProcessor                   
00004774  vPortYeildWithinAPI                   
00004868  vPortPreemptiveTick                   
00004968  vPortInitialiseFPSCR                  
00004974  ulPortCountLeadingZeros               
0000497c  vPortSWI                              
00004a4c  prvMpuSetRegion                       
00004a64  prvMpuEnable                          
00004a7c  prvMpuDisable                         
00004aa4  pxPortInitialiseStack                 
00004bb8  vPortStoreTaskMPUSettings             
00004e2c  xPortStartScheduler                   
00004e4c  vPortEndScheduler                     
00004e80  pvPortMalloc                          
000050d8  vPortFree                             
000051d0  xPortGetFreeHeapSize                  
000051dc  xPortGetMinimumEverFreeHeapSize       
000051e8  vPortInitialiseBlocks                 
00005220  __TI_Handler_Table_Base               
0000522c  __TI_Handler_Table_Limit              
00005248  __TI_CINIT_Base                       
00005268  __TI_CINIT_Limit                      
00008270  dhcp_coarse_tmr                       
00008304  dhcp_fine_tmr                         
0000868c  dhcp_set_struct                       
000086b8  dhcp_cleanup                          
000086ec  dhcp_start                            
00008878  dhcp_inform                           
000089c4  dhcp_network_changed                  
00008de8  dhcp_renew                            
00009164  dhcp_release                          
000092d8  dhcp_stop                             
0000a1d0  lwip_init                             
0000a338  mem_init                              
0000a3e8  mem_free                              
0000a4c0  mem_trim                              
0000a7ac  mem_malloc                            
0000aa80  mem_calloc                            
0000aad0  memp_init                             
0000ac38  memp_malloc                           
0000ad40  memp_free                             
0000adb8  netif_init                            
0000adc0  netif_add                             
0000ae9c  netif_set_addr                        
0000aee0  netif_remove                          
0000afd0  netif_find                            
0000b084  netif_set_ipaddr                      
0000b1e8  netif_set_gw                          
0000b228  netif_set_netmask                     
0000b260  netif_set_default                     
0000b288  netif_set_up                          
0000b2e4  netif_set_down                        
0000b32c  netif_set_link_up                     
0000b3a0  netif_set_link_down                   
0000b3d8  pbuf_free_ooseq                       
0000b480  pbuf_alloc                            
0000b7e8  pbuf_realloc                          
0000b92c  pbuf_header                           
0000babc  pbuf_free                             
0000bbd0  pbuf_clen                             
0000bc1c  pbuf_ref                              
0000bc54  pbuf_cat                              
0000bce4  pbuf_chain                            
0000bd08  pbuf_dechain                          
0000bd98  pbuf_copy                             
0000bf94  pbuf_copy_partial                     
0000c104  pbuf_take                             
0000c220  pbuf_coalesce                         
0000c290  pbuf_get_at                           
0000c334  pbuf_memcmp                           
0000c448  pbuf_memfind                          
0000c4f4  pbuf_strstr                           
0000c574  raw_input                             
0000c6bc  raw_bind                              
0000c6f8  raw_connect                           
0000c734  raw_recv                              
0000c764  raw_sendto                            
0000c8c0  raw_send                              
0000c8e4  raw_remove                            
0000c98c  raw_new                               
0000c9f8  stats_init                            
0000c9fc  tcp_init                              
0000ca00  tcp_tmr                               
0000ce08  tcp_close                             
0000ce40  tcp_shutdown                          
0000cf1c  tcp_abandon                           
0000d060  tcp_abort                             
0000d078  tcp_bind                              
0000d22c  tcp_listen_with_backlog               
0000d410  tcp_update_rcv_ann_wnd                
0000d4ec  tcp_recved                            
0000d64c  tcp_connect                           
0000d940  tcp_slowtmr                           
0000e038  tcp_fasttmr                           
0000e11c  tcp_process_refused_data              
0000e250  tcp_segs_free                         
0000e290  tcp_seg_free                          
0000e2d0  tcp_setprio                           
0000e2f0  tcp_seg_copy                          
0000e33c  tcp_recv_null                         
0000e52c  tcp_alloc                             
0000e6fc  tcp_new                               
0000e70c  tcp_arg                               
0000e72c  tcp_recv                              
0000e74c  tcp_sent                              
0000e76c  tcp_err                               
0000e78c  tcp_accept                            
0000e7ac  tcp_poll                              
0000e7dc  tcp_pcb_purge                         
0000e8a4  tcp_pcb_remove                        
0000e9d0  tcp_next_iss                          
0000e9f8  tcp_eff_send_mss                      
0000ea64  tcp_debug_state_str                   
0000ea8c  tcp_input                             
0001192c  tcp_send_fin                          
00011d8c  tcp_write                             
0001248c  tcp_enqueue_flags                     
000126f4  tcp_send_empty_ack                    
000127c8  tcp_output                            
00012de8  tcp_rst                               
00012ef8  tcp_rexmit_rto                        
00012f90  tcp_rexmit                            
00013070  tcp_rexmit_fast                       
0001314c  tcp_keepalive                         
00013208  tcp_zero_window_probe                 
000133ac  udp_init                              
00013464  udp_input                             
00013968  udp_send                              
00013994  udp_sendto                            
00013a00  udp_sendto_if                         
00013c3c  udp_bind                              
00013da0  udp_connect                           
00013ea0  udp_disconnect                        
00013ed8  udp_recv                              
00013f08  udp_remove                            
00013fb0  udp_new                               
00013ff0  icmp_input                            
00014350  icmp_dest_unreach                     
000145c4  inet_chksum_pseudo                    
00014788  inet_chksum_pseudo_partial            
00014974  inet_chksum                           
0001499c  inet_chksum_pbuf                      
00014a98  ip_route                              
00014b94  ip_input                              
00015024  ip_output_if                          
000152a8  ip_output                             
00015324  ip4_addr_isbroadcast                  
000153f4  ip4_addr_netmask_valid                
00015488  ipaddr_addr                           
000154b4  ipaddr_aton                           
000157e0  ipaddr_ntoa                           
000157fc  ipaddr_ntoa_r                         
000159e4  etharp_tmr                            
00015ff4  etharp_cleanup_netif                  
00016078  etharp_find_addr                      
0001646c  etharp_output                         
000166ec  etharp_query                          
00016b48  etharp_request                        
00016ba4  ethernet_input                        
00016d4c  perf_init                             
00016d5c  sys_arch_protect                      
00016d74  sys_arch_unprotect                    
00016d90  sys_now                               
00016da8  hdkif_swizzle_data                    
00016df0  hdkif_swizzle_txp                     
00016e04  hdkif_swizzle_rxp                     
00016e18  hdkif_macaddrset                      
0001775c  hdkif_init                            
000177fc  hdkif_rx_inthandler                   
00017b88  hdkif_tx_inthandler                   
00017ce8  hdkif_netif_status                    
00017d14  hdkif_link_status                     
00017ed4  LocatorConfig                         
00018070  lwIPInit                              
000182ac  lwIPNetIfStatusGet                    
000182cc  lwIPLinkStatusGet                     
000182f4  lwIPRxIntHandler                      
00018314  lwIPTxIntHandler                      
00018394  EMACTxIntPulseEnable                  
000183f0  EMACTxIntPulseDisable                 
0001844c  EMACRxIntPulseEnable                  
000184a8  EMACRxIntPulseDisable                 
00018504  EMACRMIISpeedSet                      
00018544  EMACMIIEnable                         
00018568  EMACMIIDisable                        
0001858c  EMACDuplexSet                         
000185cc  EMACTxEnable                          
000185e8  EMACTxDisable                         
00018604  EMACRxEnable                          
00018620  EMACRxDisable                         
0001863c  EMACTxHdrDescPtrWrite                 
00018668  EMACRxHdrDescPtrWrite                 
00018694  EMACInit                              
000187d0  EMACMACSrcAddrSet                     
00018834  EMACMACAddrSet                        
000188bc  EMACCoreIntAck                        
000188dc  EMACTxCPWrite                         
00018908  EMACRxCPWrite                         
00018934  EMACRxBroadCastEnable                 
00018978  EMACRxBroadCastDisable                
000189b4  EMACRxMultiCastEnable                 
000189f8  EMACRxMultiCastDisable                
00018a34  EMACRxUnicastSet                      
00018a64  EMACRxUnicastClear                    
00018a94  EMACNumFreeBufSet                     
00018ac0  EMACIntVectorGet                      
00018ad8  EMACInstConfig                        
00018b3c  EMACLinkSetup                         
00018c14  EMACTxTeardown                        
00018c40  EMACRxTeardown                        
00018c6c  EMACFrameSelect                       
00018c98  EMACTxPrioritySelect                  
00018cf8  EMACSoftReset                         
00018d44  EMACEnableIdleState                   
00018d68  EMACDisableIdleState                  
00018d8c  EMACEnableLoopback                    
00018df4  EMACDisableLoopback                   
00018e5c  EMACTxFlowControlEnable               
00018e80  EMACTxFlowControlDisable              
00018ea4  EMACRxFlowControlEnable               
00018ec8  EMACRxFlowControlDisable              
00018eec  EMACSwizzleData                       
00018f04  EMACRxSetFlowThreshold                
00018f58  EMACReadNetStatRegisters              
00018f7c  EMACTxIntStat                         
00018fcc  EMACRxIntStat                         
0001905c  EMACDMAInit                           
00019254  EMACHWInit                            
00019550  EMACTransmit                          
00019750  EMACTxIntHandler                      
00019868  EMACReceive                           
00019a08  EMACGetConfigValue                    
00019bac  muxInit                               
0001a588  MPU_xTaskCreate                       
0001a5ec  MPU_xTaskCreateRestricted             
0001a630  MPU_vTaskAllocateMPURegions           
0001a664  MPU_vTaskDelete                       
0001a690  MPU_vTaskDelay                        
0001a6bc  MPU_vTaskDelayUntil                   
0001a6f0  MPU_xTaskAbortDelay                   
0001a724  MPU_uxTaskPriorityGet                 
0001a758  MPU_eTaskGetState                     
0001a78c  MPU_vTaskPrioritySet                  
0001a7c0  MPU_vTaskSuspend                      
0001a7ec  MPU_vTaskResume                       
0001a818  MPU_vTaskSuspendAll                   
0001a83c  MPU_xTaskResumeAll                    
0001a868  MPU_xTaskGetTickCount                 
0001a894  MPU_uxTaskGetNumberOfTasks            
0001a8c0  MPU_pcTaskGetName                     
0001a8f4  MPU_xTaskGetHandle                    
0001a928  MPU_uxTaskGetStackHighWaterMark       
0001a95c  MPU_vTaskSetThreadLocalStoragePointer 
0001a9a0  MPU_pvTaskGetThreadLocalStoragePointer
0001a9e4  MPU_xTaskGetIdleTaskHandle            
0001aa10  MPU_xTaskGenericNotify                
0001aa64  MPU_xTaskNotifyWait                   
0001aab8  MPU_ulTaskNotifyTake                  
0001aafc  MPU_xTaskNotifyStateClear             
0001ab30  MPU_vTaskSetTimeOutState              
0001ab5c  MPU_xTaskCheckForTimeOut              
0001aba0  MPU_xTaskGetSchedulerState            
0001abcc  MPU_xQueueGenericSend                 
0001ac20  MPU_xQueueGenericReceive              
0001ac74  MPU_uxQueueMessagesWaiting            
0001aca8  MPU_uxQueueSpacesAvailable            
0001acdc  MPU_vQueueDelete                      
0001ad08  MPU_xQueueGenericCreate               
0001ad54  MPU_xQueueGenericReset                
0001ad98  MPU_xEventGroupCreate                 
0001adc4  MPU_xEventGroupWaitBits               
0001ae20  MPU_xEventGroupClearBits              
0001ae64  MPU_xEventGroupSetBits                
0001aea8  MPU_xEventGroupSync                   
0001aefc  MPU_vEventGroupDelete                 
0001af28  setupPLL                              
0001af88  trimLPO                               
0001affc  setupFlash                            
0001b03c  periphInit                            
0001b0f0  mapClocks                             
0001b21c  systemInit                            
0001b290  systemPowerDown                       
0001b2c0  getResetSource                        
0001b3e8  systemGetConfigValue                  
0001b818  customTrimLPO                         
0001b8c4  vimInit                               
0001b998  vimChannelMap                         
0001ba3c  vimEnableInterrupt                    
0001bc04  vimDisableInterrupt                   
0001bcb0  vimGetConfigValue                     
0001c200  sciInit                               
0001c2ec  sciSetFunctional                      
0001c30c  sciSetBaudrate                        
0001c3a8  sciIsTxReady                          
0001c3c4  sciSendByte                           
0001c3f4  sciSend                               
0001c558  sciIsRxReady                          
0001c574  sciIsIdleDetected                     
0001c590  sciRxError                            
0001c5c0  sciReceiveByte                        
0001c5ec  sciReceive                            
0001c6fc  sciEnableLoopback                     
0001c730  sciDisableLoopback                    
0001c74c  sciEnableNotification                 
0001c7e4  sciDisableNotification                
0001c87c  sciEnterResetState                    
0001c89c  sciExitResetState                     
0001c8bc  sci1GetConfigValue                    
0001ca70  esmInit                               
0001cbcc  esmError                              
0001cbe8  esmEnableError                        
0001cc10  esmEnableErrorUpper                   
0001cc2c  esmDisableError                       
0001cc54  esmDisableErrorUpper                  
0001cc70  esmTriggerErrorPinReset               
0001cc80  esmActivateNormalOperation            
0001cc90  esmEnableInterrupt                    
0001ccb8  esmEnableInterruptUpper               
0001ccd4  esmDisableInterrupt                   
0001ccfc  esmDisableInterruptUpper              
0001cd18  esmSetInterruptLevel                  
0001cd8c  esmSetInterruptLevelUpper             
0001cdcc  esmClearStatus                        
0001ce0c  esmClearStatusUpper                   
0001ce30  esmClearStatusBuffer                  
0001ce4c  esmSetCounterPreloadValue             
0001ce6c  esmGetStatus                          
0001cef0  esmGetStatusUpper                     
0001cf38  esmGetStatusBuffer                    
0001cf60  esmEnterSelfTest                      
0001cfe8  esmSelfTestStatus                     
0001d038  esmGetConfigValue                     
0001d1fc  Dp83640IDGet                          
0001d274  Dp83640LinkStatusGet                  
0001d354  Dp83640AutoNegotiate                  
0001d4e4  Dp83640PartnerAbilityGet              
0001d50c  Dp83640Reset                          
0001d580  Dp83640EnableLoopback                 
0001d618  Dp83640DisableLoopback                
0001d6a4  Dp83640GetTimeStamp                   
0001d8c8  Dp83640PartnerSpdGet                  
0001d8f0  _errata_SSWF021_45_both_plls          
0001dae4  _errata_SSWF021_45_pll1               
0001dc5c  _errata_SSWF021_45_pll2               
0001dfa4  tcp_timer_needed                      
0001e058  sys_timeouts_init                     
0001e09c  sys_timeout                           
0001e240  sys_untimeout                         
0001e33c  sys_check_timeouts                    
0001e440  sys_restart_timeouts                  
0001e47c  gioInit                               
0001e54c  gioSetDirection                       
0001e56c  gioSetBit                             
0001e5bc  gioSetPort                            
0001e5dc  gioGetBit                             
0001e604  gioGetPort                            
0001e61c  gioToggleBit                          
0001e674  gioEnableNotification                 
0001e6dc  gioDisableNotification                
0001e744  gioGetConfigValue                     
0001e900  _coreInitRegisters_                   
0001ea0c  _coreInitStackPointer_                
0001ea58  _getCPSRValue_                        
0001ea60  _gotoCPUIdle_                         
0001ea78  _coreEnableVfp_                       
0001ea90  _coreEnableEventBusExport_            
0001eaa0  _coreDisableEventBusExport_           
0001eab0  _coreEnableIrqVicOffset_              
0001eac0  _coreGetDataFault_                    
0001eac8  _coreClearDataFault_                  
0001ead4  _coreGetInstructionFault_             
0001eadc  _coreClearInstructionFault_           
0001eae8  _coreGetDataFaultAddress_             
0001eaf0  _coreClearDataFaultAddress_           
0001eafc  _coreGetInstructionFaultAddress_      
0001eb04  _coreClearInstructionFaultAddress_    
0001eb10  _coreGetAuxiliaryDataFault_           
0001eb18  _coreClearAuxiliaryDataFault_         
0001eb24  _coreGetAuxiliaryInstructionFault_    
0001eb2c  _coreClearAuxiliaryInstructionFault_  
0001eb38  _disable_IRQ_interrupt_               
0001eb40  _enable_IRQ_interrupt_                
0001eb48  _enable_interrupt_                    
0001eb50  _esmCcmErrorsClear_                   
0001ebd8  _memInit_                             
0001ec0c  _checkMemInitOn_                      
0001ec2c  _cacheEnable_                         
0001ec70  _cacheDisable_                        
0001ec94  _dCacheInvalidate_                    
0001eca8  _iCacheInvalidate_                    
0001ecbc  __TI_PINIT_Base                       
0001ecc0  __TI_PINIT_Limit                      
0001ecc4  smallDelay                            
0001ed04  EMAC_LwIP_Main                        
0001ed9c  iommUnlock                            
0001edb8  iommLock                              
0001edd4  iommMuxEnableMdio                     
0001edf0  iommMuxEnableRmii                     
0001ee3c  iommMuxEnableMii                      
0001ef68  IntMasterIRQEnable                    
0001ef70  IntMasterIRQDisable                   
0001ef78  IntMasterStatusGet                    
0001ef84  sciDisplayText                        
0001efe4  sciNotification                       
0001f080  _mpuInit_                             
0001f338  _mpuEnable_                           
0001f350  _mpuDisable_                          
0001f368  _mpuEnableBackgroundRegion_           
0001f378  _mpuDisableBackgroundRegion_          
0001f388  _mpuGetNumberOfRegions_               
0001f394  _mpuAreRegionsSeparate_               
0001f3a0  _mpuSetRegion_                        
0001f3a8  _mpuGetRegion_                        
0001f3b0  _mpuSetRegionBaseAddress_             
0001f3b8  _mpuGetRegionBaseAddress_             
0001f3c0  _mpuSetRegionTypeAndPermission_       
0001f3cc  _mpuGetRegionType_                    
0001f3d8  _mpuGetRegionPermission_              
0001f3e4  _mpuSetRegionSizeRegister_            
0001f3ec  vimECCErrorHandler                    
0001f728  main                                  
0001f84c  vTask1                                
0001f868  vTask2                                
0001f884  udp_echo_recv                         
0001f8d8  udpTask                               
0001fc44  vListInitialise                       
0001fc9c  vListInitialiseItem                   
0001fcb8  vListInsertEnd                        
0001fd2c  vListInsert                           
0001fdf0  uxListRemove                          
0001fe7c  MDIOPhyRegRead                        
0001ff14  MDIOPhyRegWrite                       
0001ff7c  MDIOPhyAliveStatusGet                 
0001ff94  MDIOPhyLinkStatusGet                  
0001ffac  MDIOInit                              
0001fff4  MDIOEnable                            
00020018  MDIODisable                           
00020040  esmHighInterrupt                      
000202a0  xTaskNotifyStateClear                 
00020458  esmGroup1Notification                 
0002046c  esmGroup2Notification                 
00020480  esmGroup3Notification                 
00020490  dmaGroupANotification                 
000204a4  gioNotification                       
000204cc  etpwmNotification                     
000204dc  etpwmTripNotification                 
000204f0  eqepNotification                      
00020504  epcCAMFullNotification                
00020508  epcFIFOFullNotification               
00020518  emacTxNotification                    
00020528  emacRxNotification                    
00020539  floor                                 
00020539  floorl                                
00020618  _c_int00                              
000206ec  EMACCore0RxIsr                        
00020738  EMACCore0TxIsr                        
0002078d  __aeabi_memcpy                        
0002078d  __aeabi_memcpy4                       
0002078d  __aeabi_memcpy8                       
0002078d  memcpy                                
00020829  __aeabi_memclr                        
00020829  __aeabi_memclr4                       
00020829  __aeabi_memclr8                       
0002082b  __aeabi_memset                        
0002082b  __aeabi_memset4                       
0002082b  __aeabi_memset8                       
00020831  memset                                
000208a3  __TI_decompress_lzss                  
0002090f  __aeabi_idiv0                         
0002090f  __aeabi_ldiv0                         
00020910  __aeabi_idiv                          
00020910  __aeabi_idivmod                       
00020964  __aeabi_uidiv                         
00020964  __aeabi_uidivmod                      
000209b5  __TI_auto_init_nobinit_nopinit        
000209f9  memcmp                                
00020a1f  strlen                                
00020a35  __TI_decompress_none                  
00020a43  __TI_zero_init                        
00020a50  handlePLLLockFail                     
00020a55  C$$EXIT                               
00020a55  abort                                 
00020a58  phantomInterrupt                      
00020cd8  tcp_state_str                         
00020d3c  tcp_pcb_lists                         
00020d4c  tcp_backoff                           
00020d59  tcp_persist_backoff                   
00020d60  ethbroadcast                          
00020d66  ethzero                               
00020d78  ip_addr_any                           
00020d7c  ip_addr_broadcast                     
08008120  pxCurrentTCB                          
08008800  ram_heap                              
0801b0cc  lwip_stats                            
0801b1b6  pbuf_free_ooseq_pending               
0801b1b7  tcp_active_pcbs_changed               
0801b368  hdkif_data                            
0801b410  dhcp_rx_options_val                   
0801b484  dhcp_rx_options_given                 
0801b49c  current_header                        
0801b4a0  current_iphdr_dest                    
0801b4a4  current_iphdr_src                     
0801b4a8  current_netif                         
0801b4ac  netif_default                         
0801b4b0  netif_list                            
0801b4b4  tcp_active_pcbs                       
0801b4b8  tcp_bound_pcbs                        
0801b4bc  tcp_input_pcb                         
0801b4c0  tcp_listen_pcbs                       
0801b4c4  tcp_ticks                             
0801b4c8  tcp_tmp_pcb                           
0801b4cc  tcp_tw_pcbs                           
0801b4d0  txtIPAddrItoA                         
0801b4d4  udp_pcbs                              
0801b4d8  xTask1Handle                          
0801b4dc  xTask2Handle                          
0801b4e0  xTask4Handle                          
0801d500  xSemaphore                            
0801d504  emacPhyAddress                        
0801d508  countEMACCore0RxIsr                   
0801d50c  countEMACCore0TxIsr                   
0801d510  ulCriticalNesting                     
0801d514  ulTaskHasFPUContext                   
0801d518  emacAddress                           
ffffffff  __TI_pprof_out_hndl                   
ffffffff  __TI_prof_data_size                   
ffffffff  __TI_prof_data_start                  
ffffffff  __binit__                             
ffffffff  __c_args__                            
ffffffff  binit                                 
UNDEFED   SHT$$INIT_ARRAY$$Base                 
UNDEFED   SHT$$INIT_ARRAY$$Limit                
UNDEFED   _system_post_cinit                    

[604 symbols]
