******************************************************************************
                  TI ARM Linker Unix v18.1.4                   
******************************************************************************
>> Linked Thu Jul  4 04:37:38 2019

OUTPUT FILE NAME:   <FreeRTOS_Coldbrew_UDP_FLT.out>
ENTRY POINT SYMBOL: "_c_int00"  address: 00026000


MEMORY CONFIGURATION

         name            origin    length      used     unused   attr    fill
----------------------  --------  ---------  --------  --------  ----  --------
  VECTORS               00000000   00000020  00000020  00000000     X
  KERNEL                00000020   00008000  00005270  00002d90  R  X
  FLASH0                00008020   001f7fe0  0001f4c4  001d8b1c  R  X
  FLASH1                00200000   00200000  00000000  00200000  R  X
  STACKS                08000000   00000800  00000000  00000800  RW  
  KRAM                  08000800   00000800  00000154  000006ac  RW  
  RAM                   08001000   0007f000  00014e40  0006a1c0  RW  


SEGMENT ALLOCATION MAP

run origin  load origin   length   init length attrs members
----------  ----------- ---------- ----------- ----- -------
00000000    00000000    00005290   00005290    r-x
  00000000    00000000    00000020   00000020    r-x .intvecs
  00000020    00000020    000051e0   000051e0    r-x .kernelTEXT
  00005200    00005200    00000090   00000090    r-- .cinit
00008020    00008020    0001e8d4   0001e8d4    r-x
  00008020    00008020    0001e8d4   0001e8d4    r-x .text
00026900    00026900    00000bf0   00000bf0    r--
  00026900    00026900    00000bf0   00000bf0    r-- .const
08000800    08000800    00000154   00000000    rw-
  08000800    08000800    00000154   00000000    rw- .kernelBSS
08001000    08001000    00014e40   00000000    rw-
  08001000    08001000    00012d20   00000000    rw- .bss
  08013d20    08013d20    00002000   00000000    rw- .kernelHEAP
  08015d20    08015d20    00000120   00000000    rw- .data


SECTION ALLOCATION MAP

 output                                  attributes/
section   page    origin      length       input sections
--------  ----  ----------  ----------   ----------------
.intvecs   0    00000000    00000020     
                  00000000    00000020     HL_sys_intvecs.obj (.intvecs)

.kernelTEXT 
*          0    00000020    000051e0     
                  00000020    00002bdc     os_tasks.obj (.kernelTEXT)
                  00002bfc    000011dc     os_queue.obj (.kernelTEXT)
                  00003dd8    0000081c     os_event_groups.obj (.kernelTEXT)
                  000045f4    000004b0     os_portasm.obj (.kernelTEXT)
                  00004aa4    000003dc     os_port.obj (.kernelTEXT)
                  00004e80    00000380     os_heap.obj (.kernelTEXT)

.cinit     0    00005200    00000090     
                  00005200    00000043     (.cinit..data.load) [load image, compression = lzss]
                  00005243    00000001     --HOLE-- [fill = 0]
                  00005244    0000000c     (__TI_handler_table)
                  00005250    00000009     (.cinit..kernelBSS.load) [load image, compression = lzss]
                  00005259    00000007     --HOLE-- [fill = 0]
                  00005260    00000008     (.cinit..bss.load) [load image, compression = zero_init]
                  00005268    00000008     (.cinit..kernelHEAP.load) [load image, compression = zero_init]
                  00005270    00000020     (__TI_cinit_table)

.text      0    00008020    0001e8d4     
                  00008020    00010374     lwiplib.obj (.text)
                  00018394    000029b4     HL_sys_main.obj (.text)
                  0001ad48    00001818     HL_emac.obj (.text)
                  0001c560    00000be0     HL_het.obj (.text)
                  0001d140    00000aec     HL_adc.obj (.text)
                  0001dc2c    00000a32     rtsv7R4_T_be_v3D16_eabi.lib : _printfi.c.obj (.text:__TI_printfi)
                  0001e65e    00000002                                 : div0.asm.obj (.text)
                  0001e660    000009ec     HL_pinmux.obj (.text)
                  0001f04c    000009a0     os_mpu_wrappers.obj (.text)
                  0001f9ec    00000998     HL_system.obj (.text)
                  00020384    0000093c     HL_sys_vim.obj (.text)
                  00020cc0    00000870     HL_sci.obj (.text)
                  00021530    0000078c     HL_esm.obj (.text)
                  00021cbc    000006f4     HL_phy_dp83640.obj (.text)
                  000223b0    0000068c     rtsv7R4_T_be_v3D16_eabi.lib : e_pow.c.obj (.text:pow)
                  00022a3c    00000664     HL_errata_SSWF021_45.obj (.text)
                  000230a0    00000528     timers.obj (.text)
                  000235c8    00000484     HL_gio.obj (.text)
                  00023a4c    000003c4     HL_sys_core.obj (.text)
                  00023e10    000003bc     lwip_main.obj (.text)
                  000241cc    0000036c     HL_sys_mpu.obj (.text)
                  00024538    0000033c     HL_sys_vim.obj (.text:retain)
                  00024874    000002b8     rtsv7R4_T_be_v3D16_eabi.lib : ull_div32.asm.obj (.text)
                  00024b2c    00000278     os_heap.obj (.text)
                  00024da4    00000248     rtsv7R4_T_be_v3D16_eabi.lib : _printfi.c.obj (.text:_pconv_a)
                  00024fec    00000238     os_list.obj (.text)
                  00025224    000001c4     HL_mdio.obj (.text)
                  000253e8    000001a0     rtsv7R4_T_be_v3D16_eabi.lib : _printfi.c.obj (.text:_pconv_g)
                  00025588    00000178     HL_esm.obj (.text:retain)
                  00025700    00000164     os_tasks.obj (.text)
                  00025864    0000015c     HL_het.obj (.text:retain)
                  000259c0    0000013c     os_port.obj (.text)
                  00025afc    00000134     HL_notification.obj (.text)
                  00025c30    00000104     rtsv7R4_T_be_v3D16_eabi.lib : _printfi.c.obj (.text:_pconv_e)
                  00025d34    000000fc                                 : _printfi.c.obj (.text:fcvt)
                  00025e30    000000f0                                 : s_scalbn.c.obj (.text:scalbn)
                  00025f20    000000e0                                 : s_floor.c.obj (.text:floor)
                  00026000    000000d4     HL_sys_startup.obj (.text:retain)
                  000260d4    000000ad     rtsv7R4_T_be_v3D16_eabi.lib : _printfi.c.obj (.text:_ltostr)
                  00026181    00000003     --HOLE-- [fill = 0]
                  00026184    000000a0     lwip_main.obj (.text:retain)
                  00026224    0000009c     rtsv7R4_T_be_v3D16_eabi.lib : memcpy_t2.asm.obj (.text)
                  000262c0    00000098     HL_gio.obj (.text:retain)
                  00026358    0000007a     rtsv7R4_T_be_v3D16_eabi.lib : _printfi.c.obj (.text:_mcpy)
                  000263d2    0000007a                                 : memset_t2.asm.obj (.text)
                  0002644c    00000074                                 : s_frexp.c.obj (.text:frexp)
                  000264c0    0000006c                                 : copy_decompress_lzss.c.obj (.text:decompress:lzss:__TI_decompress_lzss)
                  0002652c    00000054                                 : _printfi.c.obj (.text:_ecpy)
                  00026580    00000054                                 : ltoa.c.obj (.text:ltoa)
                  000265d4    00000054                                 : i_div32.asm.obj (.text)
                  00026628    00000050                                 : _printfi.c.obj (.text:_pconv_f)
                  00026678    00000050                                 : atoi.c.obj (.text:atoi)
                  000266c8    00000050                                 : u_div32.asm.obj (.text)
                  00026718    00000044                                 : autoinit.c.obj (.text:__TI_auto_init_nobinit_nopinit:__TI_auto_init_nobinit_nopinit)
                  0002675c    00000040                                 : _printfi.c.obj (.text:_fcpy)
                  0002679c    00000040                                 : sprintf.c.obj (.text:sprintf)
                  000267dc    0000002c                                 : e_sqrt.c.obj (.text:sqrt)
                  00026808    00000026                                 : memcmp.c.obj (.text:memcmp)
                  0002682e    0000001c                                 : memccpy.c.obj (.text:memccpy)
                  0002684a    0000001a                                 : sprintf.c.obj (.text:_outs)
                  00026864    00000018                                 : s_copysign.c.obj (.text:copysign)
                  0002687c    00000016                                 : strchr.c.obj (.text:strchr)
                  00026892    00000016                                 : strlen.c.obj (.text:strlen)
                  000268a8    00000012                                 : wcslen.c.obj (.text:wcslen)
                  000268ba    0000000e                                 : copy_decompress_none.c.obj (.text:decompress:none:__TI_decompress_none)
                  000268c8    0000000c                                 : copy_zero_init.c.obj (.text:decompress:ZI:__TI_zero_init)
                  000268d4    0000000a                                 : sprintf.c.obj (.text:_outc)
                  000268de    00000002     --HOLE-- [fill = 0]
                  000268e0    00000008                                 : errno.c.obj (.text:__aeabi_errno_addr)
                  000268e8    00000004     HL_sys_startup.obj (.text)
                  000268ec    00000004     rtsv7R4_T_be_v3D16_eabi.lib : exit.c.obj (.text:abort:abort)
                  000268f0    00000004     HL_sys_phantom.obj (.text:retain)

.const     0    00026900    00000bf0     
                  00026900    000003a0     HL_het.obj (.const:het1PROGRAM)
                  00026ca0    000003a0     HL_het.obj (.const:het2PROGRAM)
                  00027040    00000200     HL_sys_vim.obj (.const:s_vim_init)
                  00027240    00000101     rtsv7R4_T_be_v3D16_eabi.lib : ctype.c.obj (.const:.string:_ctypes_)
                  00027341    00000003     --HOLE-- [fill = 0]
                  00027344    00000078     lwiplib.obj (.const:.string)
                  000273bc    00000004     HL_sys_main.obj (.const:.string:$P$T0$2)
                  000273c0    00000030     rtsv7R4_T_be_v3D16_eabi.lib : e_pow.c.obj (.const:$O1$$)
                  000273f0    0000002c     lwiplib.obj (.const:tcp_state_str)
                  0002741c    00000020     HL_het.obj (.const:s_het1pwmPolarity)
                  0002743c    00000020     HL_het.obj (.const:s_het2pwmPolarity)
                  0002745c    00000018     HL_adc.obj (.const:s_adcFiFoSize)
                  00027474    00000018     HL_adc.obj (.const:s_adcSelect)
                  0002748c    00000010     lwiplib.obj (.const:memp_num)
                  0002749c    00000010     lwiplib.obj (.const:memp_sizes)
                  000274ac    00000010     lwiplib.obj (.const:tcp_pcb_lists)
                  000274bc    0000000d     lwiplib.obj (.const:.string:tcp_backoff)
                  000274c9    00000007     lwiplib.obj (.const:.string:tcp_persist_backoff)
                  000274d0    00000006     lwiplib.obj (.const:ethbroadcast)
                  000274d6    00000006     lwiplib.obj (.const:ethzero)
                  000274dc    00000004     lwip_main.obj (.const:.string:$P$T0$2)
                  000274e0    00000004     lwip_main.obj (.const:.string:$P$T1$3)
                  000274e4    00000004     lwip_main.obj (.const:.string:$P$T2$4)
                  000274e8    00000004     lwiplib.obj (.const:ip_addr_any)
                  000274ec    00000004     lwiplib.obj (.const:ip_addr_broadcast)

.kernelBSS 
*          0    08000800    00000154     UNINITIALIZED
                  08000800    00000120     os_tasks.obj (.kernelBSS:uninit)
                  08000920    00000034     os_tasks.obj (.kernelBSS:init)

.bss       0    08001000    00012d20     UNINITIALIZED
                  08001000    00007814     (.common:ram_heap)
                  08008814    00007594     lwiplib.obj (.bss:memp_memory)
                  0800fda8    00003b24     HL_emac.obj (.bss:pbuf_array)
                  080138cc    000000ea     (.common:lwip_stats)
                  080139b6    00000001     (.common:drop_before)
                  080139b7    00000001     (.common:pbuf_free_ooseq_pending)
                  080139b8    000000c8     lwiplib.obj (.bss:arp_table)
                  08013a80    00000054     lwiplib.obj (.bss:locatorData)
                  08013ad4    00000050     HL_sci.obj (.bss:g_sciTransfer_t)
                  08013b24    00000044     lwiplib.obj (.bss:hdkif_data)
                  08013b68    0000003c     (.common:hdkif_data)
                  08013ba4    00000037     lwiplib.obj (.bss)
                  08013bdb    00000001     (.common:tcp_active_pcbs_changed)
                  08013bdc    00000034     lwiplib.obj (.bss:hdkNetIF)
                  08013c10    00000028     (.common:dhcp_rx_options_val)
                  08013c38    00000020     lwiplib.obj (.bss:memp_tab)
                  08013c58    00000014     (.common:drop_time_array)
                  08013c6c    00000010     lwiplib.obj (.bss:inseg)
                  08013c7c    00000010     lwiplib.obj (.bss:str$3)
                  08013c8c    0000000c     timers.obj (.bss)
                  08013c98    0000000c     (.common:dhcp_rx_options_given)
                  08013ca4    00000008     os_heap.obj (.bss:xStart)
                  08013cac    00000008     (.common:adc_data)
                  08013cb4    00000004     lwip_main.obj (.bss)
                  08013cb8    00000004     (.common:cnt)
                  08013cbc    00000004     (.common:current_header)
                  08013cc0    00000004     (.common:current_iphdr_dest)
                  08013cc4    00000004     (.common:current_iphdr_src)
                  08013cc8    00000004     (.common:current_netif)
                  08013ccc    00000004     (.common:drop_time_avg)
                  08013cd0    00000004     (.common:netif_default)
                  08013cd4    00000004     (.common:netif_list)
                  08013cd8    00000004     (.common:ontime)
                  08013cdc    00000004     (.common:p)
                  08013ce0    00000004     (.common:pcb)
                  08013ce4    00000004     (.common:step)
                  08013ce8    00000004     (.common:tcp_active_pcbs)
                  08013cec    00000004     (.common:tcp_bound_pcbs)
                  08013cf0    00000004     (.common:tcp_input_pcb)
                  08013cf4    00000004     (.common:tcp_listen_pcbs)
                  08013cf8    00000004     (.common:tcp_ticks)
                  08013cfc    00000004     (.common:tcp_tmp_pcb)
                  08013d00    00000004     (.common:tcp_tw_pcbs)
                  08013d04    00000004     (.common:temp)
                  08013d08    00000004     (.common:txtIPAddrItoA)
                  08013d0c    00000004     (.common:udp_pcbs)
                  08013d10    00000004     (.common:value)
                  08013d14    00000004     (.common:weight)
                  08013d18    00000004     (.common:xTask2Handle)
                  08013d1c    00000004     (.common:xTask4Handle)

.kernelHEAP 
*          0    08013d20    00002000     UNINITIALIZED
                  08013d20    00002000     os_heap.obj (.kernelHEAP)

.data      0    08015d20    00000120     UNINITIALIZED
                  08015d20    0000007a     HL_sys_main.obj (.data:bitcount)
                  08015d9a    00000006     HL_sys_main.obj (.data:emacAddress)
                  08015da0    00000048     HL_sys_main.obj (.data)
                  08015de8    0000001b     HL_sys_main.obj (.data:msg)
                  08015e03    00000001     --HOLE--
                  08015e04    00000010     os_heap.obj (.data)
                  08015e14    0000000c     HL_sys_main.obj (.data:letter)
                  08015e20    0000000c     lwiplib.obj (.data)
                  08015e2c    00000008     lwip_main.obj (.data)
                  08015e34    00000008     os_port.obj (.data)
                  08015e3c    00000004     rtsv7R4_T_be_v3D16_eabi.lib : errno.c.obj (.data)

MODULE SUMMARY

       Module                       code     ro data   rw data
       ------                       ----     -------   -------
    ./example/hdk/src/
       lwip_main.obj                1116     12        16     
    +--+----------------------------+--------+---------+---------+
       Total:                       1116     12        16     
                                                              
    ./lwip-1.4.1/ports/hdk/
       lwiplib.obj                  66420    252       61719  
    +--+----------------------------+--------+---------+---------+
       Total:                       66420    252       61719  
                                                              
    ./lwip-1.4.1/src/core/
       timers.obj                   1320     0         12     
    +--+----------------------------+--------+---------+---------+
       Total:                       1320     0         12     
                                                              
    ./source/
       HL_emac.obj                  6168     0         15200  
       os_tasks.obj                 11584    0         340    
       HL_sys_main.obj              10676    4         312    
       os_heap.obj                  1528     0         8216   
       HL_het.obj                   3388     1920      0      
       os_queue.obj                 4572     0         0      
       HL_sys_vim.obj               3192     512       0      
       HL_adc.obj                   2796     48        0      
       HL_pinmux.obj                2540     0         0      
       os_mpu_wrappers.obj          2464     0         0      
       HL_system.obj                2456     0         0      
       HL_esm.obj                   2308     0         0      
       HL_sci.obj                   2160     0         80     
       os_event_groups.obj          2076     0         0      
       HL_phy_dp83640.obj           1780     0         0      
       HL_errata_SSWF021_45.obj     1636     0         0      
       os_port.obj                  1304     0         8      
       HL_gio.obj                   1308     0         0      
       os_portasm.obj               1200     0         0      
       HL_sys_core.obj              964      0         0      
       HL_sys_mpu.obj               876      0         0      
       os_list.obj                  568      0         0      
       HL_mdio.obj                  452      0         0      
       HL_notification.obj          308      0         0      
       HL_sys_startup.obj           216      0         0      
       HL_sys_intvecs.obj           32       0         0      
       HL_sys_phantom.obj           4        0         0      
    +--+----------------------------+--------+---------+---------+
       Total:                       68556    2484      24156  
                                                              
    /home/koitt/ti/ccsv8/tools/compiler/ti-cgt-arm_18.1.4.LTS/lib/rtsv7R4_T_be_v3D16_eabi.lib
       _printfi.c.obj               4645     0         0      
       e_pow.c.obj                  1676     48        0      
       ull_div32.asm.obj            696      0         0      
       ctype.c.obj                  0        257       0      
       s_scalbn.c.obj               240      0         0      
       s_floor.c.obj                224      0         0      
       memcpy_t2.asm.obj            156      0         0      
       memset_t2.asm.obj            122      0         0      
       s_frexp.c.obj                116      0         0      
       copy_decompress_lzss.c.obj   108      0         0      
       sprintf.c.obj                100      0         0      
       i_div32.asm.obj              84       0         0      
       ltoa.c.obj                   84       0         0      
       atoi.c.obj                   80       0         0      
       u_div32.asm.obj              80       0         0      
       autoinit.c.obj               68       0         0      
       e_sqrt.c.obj                 44       0         0      
       memcmp.c.obj                 38       0         0      
       memccpy.c.obj                28       0         0      
       s_copysign.c.obj             24       0         0      
       strchr.c.obj                 22       0         0      
       strlen.c.obj                 22       0         0      
       wcslen.c.obj                 18       0         0      
       copy_decompress_none.c.obj   14       0         0      
       copy_zero_init.c.obj         12       0         0      
       errno.c.obj                  8        0         4      
       exit.c.obj                   4        0         0      
       div0.asm.obj                 2        0         0      
    +--+----------------------------+--------+---------+---------+
       Total:                       8715     305       4      
                                                              
       Linker Generated:            0        136       0      
    +--+----------------------------+--------+---------+---------+
       Grand Total:                 146127   3189      85907  


LINKER GENERATED COPY TABLES

__TI_cinit_table @ 00005270 records: 4, size/record: 8, table size: 32
	.data: load addr=00005200, load size=00000043 bytes, run addr=08015d20, run size=00000120 bytes, compression=lzss
	.kernelBSS: load addr=00005250, load size=00000009 bytes, run addr=08000800, run size=00000154 bytes, compression=lzss
	.bss: load addr=00005260, load size=00000008 bytes, run addr=08001000, run size=00012d20 bytes, compression=zero_init
	.kernelHEAP: load addr=00005268, load size=00000008 bytes, run addr=08013d20, run size=00002000 bytes, compression=zero_init


LINKER GENERATED HANDLER TABLE

__TI_handler_table @ 00005244 records: 3, size/record: 4, table size: 12
	index: 0, handler: __TI_decompress_lzss
	index: 1, handler: __TI_decompress_none
	index: 2, handler: __TI_zero_init


GLOBAL SYMBOLS: SORTED ALPHABETICALLY BY Name 

address   name                                  
-------   ----                                  
000268ed  C$$EXIT                               
00021e14  Dp83640AutoNegotiate                  
000220d8  Dp83640DisableLoopback                
00022040  Dp83640EnableLoopback                 
00022164  Dp83640GetTimeStamp                   
00021cbc  Dp83640IDGet                          
00021d34  Dp83640LinkStatusGet                  
00021fa4  Dp83640PartnerAbilityGet              
00022388  Dp83640PartnerSpdGet                  
00021fcc  Dp83640Reset                          
00026184  EMACCore0RxIsr                        
000261d0  EMACCore0TxIsr                        
0001b270  EMACCoreIntAck                        
0001ba10  EMACDMAInit                           
0001b71c  EMACDisableIdleState                  
0001b7a8  EMACDisableLoopback                   
0001af40  EMACDuplexSet                         
0001b6f8  EMACEnableIdleState                   
0001b740  EMACEnableLoopback                    
0001b620  EMACFrameSelect                       
0001c3bc  EMACGetConfigValue                    
0001bc08  EMACHWInit                            
0001b048  EMACInit                              
0001b48c  EMACInstConfig                        
0001b474  EMACIntVectorGet                      
0001b4f0  EMACLinkSetup                         
0001b1e8  EMACMACAddrSet                        
0001b184  EMACMACSrcAddrSet                     
0001af1c  EMACMIIDisable                        
0001aef8  EMACMIIEnable                         
0001b448  EMACNumFreeBufSet                     
0001aeb8  EMACRMIISpeedSet                      
0001b90c  EMACReadNetStatRegisters              
0001c21c  EMACReceive                           
0001b32c  EMACRxBroadCastDisable                
0001b2e8  EMACRxBroadCastEnable                 
0001b2bc  EMACRxCPWrite                         
0001afd4  EMACRxDisable                         
0001afb8  EMACRxEnable                          
0001b87c  EMACRxFlowControlDisable              
0001b858  EMACRxFlowControlEnable               
0001b01c  EMACRxHdrDescPtrWrite                 
0001ae5c  EMACRxIntPulseDisable                 
0001ae00  EMACRxIntPulseEnable                  
0001b980  EMACRxIntStat                         
0001b3ac  EMACRxMultiCastDisable                
0001b368  EMACRxMultiCastEnable                 
0001b8b8  EMACRxSetFlowThreshold                
0001b5f4  EMACRxTeardown                        
0001b418  EMACRxUnicastClear                    
0001b3e8  EMACRxUnicastSet                      
0001b6ac  EMACSoftReset                         
0001b8a0  EMACSwizzleData                       
0001bf04  EMACTransmit                          
0001b290  EMACTxCPWrite                         
0001af9c  EMACTxDisable                         
0001af80  EMACTxEnable                          
0001b834  EMACTxFlowControlDisable              
0001b810  EMACTxFlowControlEnable               
0001aff0  EMACTxHdrDescPtrWrite                 
0001c104  EMACTxIntHandler                      
0001ada4  EMACTxIntPulseDisable                 
0001ad48  EMACTxIntPulseEnable                  
0001b930  EMACTxIntStat                         
0001b64c  EMACTxPrioritySelect                  
0001b5c8  EMACTxTeardown                        
00023e50  EMAC_LwIP_Main                        
000240bc  IntMasterIRQDisable                   
000240b4  IntMasterIRQEnable                    
000240c4  IntMasterStatusGet                    
00017ed4  LocatorConfig                         
000253c0  MDIODisable                           
0002539c  MDIOEnable                            
00025354  MDIOInit                              
00025324  MDIOPhyAliveStatusGet                 
0002533c  MDIOPhyLinkStatusGet                  
00025224  MDIOPhyRegRead                        
000252bc  MDIOPhyRegWrite                       
0001f21c  MPU_eTaskGetState                     
0001f384  MPU_pcTaskGetName                     
0001f464  MPU_pvTaskGetThreadLocalStoragePointer
0001f57c  MPU_ulTaskNotifyTake                  
0001f738  MPU_uxQueueMessagesWaiting            
0001f76c  MPU_uxQueueSpacesAvailable            
0001f358  MPU_uxTaskGetNumberOfTasks            
0001f3ec  MPU_uxTaskGetStackHighWaterMark       
0001f1e8  MPU_uxTaskPriorityGet                 
0001f9c0  MPU_vEventGroupDelete                 
0001f7a0  MPU_vQueueDelete                      
0001f0f4  MPU_vTaskAllocateMPURegions           
0001f154  MPU_vTaskDelay                        
0001f180  MPU_vTaskDelayUntil                   
0001f128  MPU_vTaskDelete                       
0001f250  MPU_vTaskPrioritySet                  
0001f2b0  MPU_vTaskResume                       
0001f420  MPU_vTaskSetThreadLocalStoragePointer 
0001f5f4  MPU_vTaskSetTimeOutState              
0001f284  MPU_vTaskSuspend                      
0001f2dc  MPU_vTaskSuspendAll                   
0001f8e4  MPU_xEventGroupClearBits              
0001f85c  MPU_xEventGroupCreate                 
0001f928  MPU_xEventGroupSetBits                
0001f96c  MPU_xEventGroupSync                   
0001f888  MPU_xEventGroupWaitBits               
0001f7cc  MPU_xQueueGenericCreate               
0001f6e4  MPU_xQueueGenericReceive              
0001f818  MPU_xQueueGenericReset                
0001f690  MPU_xQueueGenericSend                 
0001f1b4  MPU_xTaskAbortDelay                   
0001f620  MPU_xTaskCheckForTimeOut              
0001f04c  MPU_xTaskCreate                       
0001f0b0  MPU_xTaskCreateRestricted             
0001f4d4  MPU_xTaskGenericNotify                
0001f3b8  MPU_xTaskGetHandle                    
0001f4a8  MPU_xTaskGetIdleTaskHandle            
0001f664  MPU_xTaskGetSchedulerState            
0001f32c  MPU_xTaskGetTickCount                 
0001f5c0  MPU_xTaskNotifyStateClear             
0001f528  MPU_xTaskNotifyWait                   
0001f300  MPU_xTaskResumeAll                    
UNDEFED   SHT$$INIT_ARRAY$$Base                 
UNDEFED   SHT$$INIT_ARRAY$$Limit                
00005270  __TI_CINIT_Base                       
00005290  __TI_CINIT_Limit                      
00005244  __TI_Handler_Table_Base               
00005250  __TI_Handler_Table_Limit              
00023e08  __TI_PINIT_Base                       
00023e0c  __TI_PINIT_Limit                      
00026719  __TI_auto_init_nobinit_nopinit        
000264c1  __TI_decompress_lzss                  
000268bb  __TI_decompress_none                  
ffffffff  __TI_pprof_out_hndl                   
0001dc2d  __TI_printfi                          
ffffffff  __TI_prof_data_size                   
ffffffff  __TI_prof_data_start                  
00000000  __TI_static_base__                    
000268c9  __TI_zero_init                        
000268e1  __aeabi_errno_addr                    
000265d4  __aeabi_idiv                          
0001e65f  __aeabi_idiv0                         
000265d4  __aeabi_idivmod                       
0001e65f  __aeabi_ldiv0                         
000263d3  __aeabi_memclr                        
000263d3  __aeabi_memclr4                       
000263d3  __aeabi_memclr8                       
00026225  __aeabi_memcpy                        
00026225  __aeabi_memcpy4                       
00026225  __aeabi_memcpy8                       
000263d5  __aeabi_memset                        
000263d5  __aeabi_memset4                       
000263d5  __aeabi_memset8                       
000266c8  __aeabi_uidiv                         
000266c8  __aeabi_uidivmod                      
00024874  __aeabi_uldivmod                      
ffffffff  __binit__                             
ffffffff  __c_args__                            
00026000  _c_int00                              
00023dbc  _cacheDisable_                        
00023d78  _cacheEnable_                         
00023d58  _checkMemInitOn_                      
00023c64  _coreClearAuxiliaryDataFault_         
00023c78  _coreClearAuxiliaryInstructionFault_  
00023c3c  _coreClearDataFaultAddress_           
00023c14  _coreClearDataFault_                  
00023c50  _coreClearInstructionFaultAddress_    
00023c28  _coreClearInstructionFault_           
00023bec  _coreDisableEventBusExport_           
00023bdc  _coreEnableEventBusExport_            
00023bfc  _coreEnableIrqVicOffset_              
00023bc4  _coreEnableVfp_                       
00023c5c  _coreGetAuxiliaryDataFault_           
00023c70  _coreGetAuxiliaryInstructionFault_    
00023c34  _coreGetDataFaultAddress_             
00023c0c  _coreGetDataFault_                    
00023c48  _coreGetInstructionFaultAddress_      
00023c20  _coreGetInstructionFault_             
00023a4c  _coreInitRegisters_                   
00023b58  _coreInitStackPointer_                
00027240  _ctypes_                              
00023de0  _dCacheInvalidate_                    
00023c84  _disable_IRQ_interrupt_               
00023c8c  _enable_IRQ_interrupt_                
00023c94  _enable_interrupt_                    
00022a3c  _errata_SSWF021_45_both_plls          
00022c30  _errata_SSWF021_45_pll1               
00022da8  _errata_SSWF021_45_pll2               
00023c9c  _esmCcmErrorsClear_                   
00023ba4  _getCPSRValue_                        
00023bac  _gotoCPUIdle_                         
00023df4  _iCacheInvalidate_                    
00023d24  _memInit_                             
000244e0  _mpuAreRegionsSeparate_               
000244c4  _mpuDisableBackgroundRegion_          
0002449c  _mpuDisable_                          
000244b4  _mpuEnableBackgroundRegion_           
00024484  _mpuEnable_                           
000244d4  _mpuGetNumberOfRegions_               
00024504  _mpuGetRegionBaseAddress_             
00024524  _mpuGetRegionPermission_              
00024518  _mpuGetRegionType_                    
000244f4  _mpuGetRegion_                        
000241cc  _mpuInit_                             
000244fc  _mpuSetRegionBaseAddress_             
00024530  _mpuSetRegionSizeRegister_            
0002450c  _mpuSetRegionTypeAndPermission_       
000244ec  _mpuSetRegion_                        
UNDEFED   _system_post_cinit                    
000268ed  abort                                 
0001d9bc  adc1GetConfigValue                    
0001d598  adcCalibration                        
0001d95c  adcDisableNotification                
0001d90c  adcEnableNotification                 
0001d370  adcGetData                            
0001d9a4  adcGetEVTPin                          
0001d140  adcInit                               
0001d568  adcIsConversionComplete               
0001d538  adcIsFifoFull                         
0001d770  adcMidPointCalibration                
00025b48  adcNotification                       
0001d348  adcResetFiFo                          
0001d984  adcSetEVTPin                          
0001d29c  adcStartConversion                    
0001d320  adcStopConversion                     
08013cac  adc_data                              
00026679  atoi                                  
ffffffff  binit                                 
08015d20  bitcount                              
0001cc80  capGetSignal                          
08013cb8  cnt                                   
00026865  copysign                              
00026865  copysignl                             
08015e2c  countEMACCore0RxIsr                   
08015e30  countEMACCore0TxIsr                   
08013cbc  current_header                        
08013cc0  current_iphdr_dest                    
08013cc4  current_iphdr_src                     
08013cc8  current_netif                         
000202d8  customTrimLPO                         
08015da4  decode                                
00019ba8  decode_ir                             
0001843c  delay_ms                              
000183f4  delay_us                              
000086b8  dhcp_cleanup                          
00008270  dhcp_coarse_tmr                       
00008304  dhcp_fine_tmr                         
00008878  dhcp_inform                           
000089c4  dhcp_network_changed                  
00009164  dhcp_release                          
00008de8  dhcp_renew                            
08013c98  dhcp_rx_options_given                 
08013c10  dhcp_rx_options_val                   
0000868c  dhcp_set_struct                       
000086ec  dhcp_start                            
000092d8  dhcp_stop                             
00025b34  dmaGroupANotification                 
080139b6  drop_before                           
08015da8  drop_count                            
08015dac  drop_sens_timing                      
08013c58  drop_time_array                       
08013ccc  drop_time_avg                         
00001f18  eTaskConfirmSleepModeStatus           
00000890  eTaskGetState                         
0001cc38  edgeDisableNotification               
0001cbfc  edgeEnableNotification                
0001cbd0  edgeGetCounter                        
00025b9c  edgeNotification                      
0001cba4  edgeResetCounter                      
08015d9a  emacAddress                           
08015dd0  emacPhyAddress                        
00025c20  emacRxNotification                    
00025c10  emacTxNotification                    
00025bfc  epcCAMFullNotification                
00025c00  epcFIFOFullNotification               
00025be8  eqepNotification                      
08015e3c  errno                                 
00021740  esmActivateNormalOperation            
0002188c  esmClearStatus                        
000218f0  esmClearStatusBuffer                  
000218cc  esmClearStatusUpper                   
000216ec  esmDisableError                       
00021714  esmDisableErrorUpper                  
00021794  esmDisableInterrupt                   
000217bc  esmDisableInterruptUpper              
000216a8  esmEnableError                        
000216d0  esmEnableErrorUpper                   
00021750  esmEnableInterrupt                    
00021778  esmEnableInterruptUpper               
00021a20  esmEnterSelfTest                      
0002168c  esmError                              
00021af8  esmGetConfigValue                     
0002192c  esmGetStatus                          
000219f8  esmGetStatusBuffer                    
000219b0  esmGetStatusUpper                     
00025afc  esmGroup1Notification                 
00025b10  esmGroup2Notification                 
00025b24  esmGroup3Notification                 
00025588  esmHighInterrupt                      
00021530  esmInit                               
00021aa8  esmSelfTestStatus                     
0002190c  esmSetCounterPreloadValue             
000217d8  esmSetInterruptLevel                  
0002184c  esmSetInterruptLevelUpper             
00021730  esmTriggerErrorPinReset               
00015ff4  etharp_cleanup_netif                  
00016078  etharp_find_addr                      
0001646c  etharp_output                         
000166ec  etharp_query                          
00016b48  etharp_request                        
000159e4  etharp_tmr                            
000274d0  ethbroadcast                          
00016ba4  ethernet_input                        
000274d6  ethzero                               
00025bc4  etpwmNotification                     
00025bd4  etpwmTripNotification                 
00025f21  floor                                 
00025f21  floorl                                
0002644d  frexp                                 
0002644d  frexpl                                
0001fd80  getResetSource                        
00023828  gioDisableNotification                
000237c0  gioEnableNotification                 
00023728  gioGetBit                             
00023890  gioGetConfigValue                     
00023750  gioGetPort                            
000262c0  gioHighLevelInterrupt                 
000235c8  gioInit                               
00019b80  gioNotification                       
000236b8  gioSetBit                             
00023698  gioSetDirection                       
00023708  gioSetPort                            
00023768  gioToggleBit                          
000268e8  handlePLLLockFail                     
08013b68  hdkif_data                            
0001775c  hdkif_init                            
00017d14  hdkif_link_status                     
00016e18  hdkif_macaddrset                      
00017ce8  hdkif_netif_status                    
000177fc  hdkif_rx_inthandler                   
00016da8  hdkif_swizzle_data                    
00016e04  hdkif_swizzle_rxp                     
00016df0  hdkif_swizzle_txp                     
00017b88  hdkif_tx_inthandler                   
0001cd8c  het1GetConfigValue                    
0001cf1c  het2GetConfigValue                    
00025864  het2HighLevelInterrupt                
0002590c  het2LowLevelInterrupt                 
0001cd74  hetGetTimestamp                       
0001c560  hetInit                               
00025bb0  hetNotification                       
0001cd58  hetResetTimestamp                     
00014350  icmp_dest_unreach                     
00013ff0  icmp_input                            
00014974  inet_chksum                           
0001499c  inet_chksum_pbuf                      
000145c4  inet_chksum_pseudo                    
00014788  inet_chksum_pseudo_partial            
00023f04  iommLock                              
00023f20  iommMuxEnableMdio                     
00023f88  iommMuxEnableMii                      
00023f3c  iommMuxEnableRmii                     
00023ee8  iommUnlock                            
00015324  ip4_addr_isbroadcast                  
000153f4  ip4_addr_netmask_valid                
000274e8  ip_addr_any                           
000274ec  ip_addr_broadcast                     
00014b94  ip_input                              
000152a8  ip_output                             
00015024  ip_output_if                          
00014a98  ip_route                              
00015488  ipaddr_addr                           
000154b4  ipaddr_aton                           
000157e0  ipaddr_ntoa                           
000157fc  ipaddr_ntoa_r                         
00019644  lcd_char                              
00019758  lcd_char_variable                     
000195b8  lcd_command                           
000198fc  lcd_init                              
00019868  lcd_string                            
00025e31  ldexp                                 
00025e31  ldexpl                                
08015e14  letter                                
00026581  ltoa                                  
00018070  lwIPInit                              
000182cc  lwIPLinkStatusGet                     
000182ac  lwIPNetIfStatusGet                    
000182f4  lwIPRxIntHandler                      
00018314  lwIPTxIntHandler                      
0000a1d0  lwip_init                             
080138cc  lwip_stats                            
00018a78  main                                  
0001fbb4  mapClocks                             
0000aa80  mem_calloc                            
0000a3e8  mem_free                              
0000a338  mem_init                              
0000a7ac  mem_malloc                            
0000a4c0  mem_trim                              
0002682f  memccpy                               
00026809  memcmp                                
00026225  memcpy                                
0000ad40  memp_free                             
0000aad0  memp_init                             
0000ac38  memp_malloc                           
000263db  memset                                
08015de8  msg                                   
0001e660  muxInit                               
0000adc0  netif_add                             
08013cd0  netif_default                         
0000afd0  netif_find                            
0000adb8  netif_init                            
08013cd4  netif_list                            
0000aee0  netif_remove                          
0000ae9c  netif_set_addr                        
0000b260  netif_set_default                     
0000b2e4  netif_set_down                        
0000b1e8  netif_set_gw                          
0000b084  netif_set_ipaddr                      
0000b3a0  netif_set_link_down                   
0000b32c  netif_set_link_up                     
0000b228  netif_set_netmask                     
0000b288  netif_set_up                          
08013cd8  ontime                                
08013cdc  p                                     
0000b480  pbuf_alloc                            
0000bc54  pbuf_cat                              
0000bce4  pbuf_chain                            
0000bbd0  pbuf_clen                             
0000c220  pbuf_coalesce                         
0000bd98  pbuf_copy                             
0000bf94  pbuf_copy_partial                     
0000bd08  pbuf_dechain                          
0000babc  pbuf_free                             
0000b3d8  pbuf_free_ooseq                       
080139b7  pbuf_free_ooseq_pending               
0000c290  pbuf_get_at                           
0000b92c  pbuf_header                           
0000c334  pbuf_memcmp                           
0000c448  pbuf_memfind                          
0000b7e8  pbuf_realloc                          
0000bc1c  pbuf_ref                              
0000c4f4  pbuf_strstr                           
0000c104  pbuf_take                             
00001354  pcTaskGetName                         
08013ce0  pcb                                   
00016d4c  perf_init                             
0001fb00  periphInit                            
000268f0  phantomInterrupt                      
000223b1  pow                                   
000223b1  powl                                  
00004a7c  prvMpuDisable                         
00004a64  prvMpuEnable                          
00004a4c  prvMpuSetRegion                       
00004e80  pvPortMalloc                          
00001ff8  pvTaskGetThreadLocalStoragePointer    
0001cb74  pwmDisableNotification                
0001cb2c  pwmEnableNotification                 
0001ca4c  pwmGetSignal                          
00018dcc  pwmNotification                       
0001c74c  pwmSetDuty                            
0001c89c  pwmSetSignal                          
0001c6e4  pwmStart                              
0001c718  pwmStop                               
08000920  pxCurrentTCB                          
00004aa4  pxPortInitialiseStack                 
08001000  ram_heap                              
0000c6bc  raw_bind                              
0000c6f8  raw_connect                           
0000c574  raw_input                             
0000c98c  raw_new                               
0000c734  raw_recv                              
0000c8e4  raw_remove                            
0000c8c0  raw_send                              
0000c764  raw_sendto                            
00019ca0  remote_data_calc                      
08015da0  remote_now                            
00000000  resetEntry                            
00025e31  scalbn                                
00025e31  scalbnl                               
0002137c  sci1GetConfigValue                    
000211f0  sciDisableLoopback                    
000212a4  sciDisableNotification                
000240d0  sciDisplayText                        
000211bc  sciEnableLoopback                     
0002120c  sciEnableNotification                 
0002133c  sciEnterResetState                    
0002135c  sciExitResetState                     
00020cc0  sciInit                               
00021034  sciIsIdleDetected                     
00021018  sciIsRxReady                          
00020e68  sciIsTxReady                          
00024130  sciNotification                       
000210ac  sciReceive                            
00021080  sciReceiveByte                        
00021050  sciRxError                            
00020eb4  sciSend                               
00020e84  sciSendByte                           
00020dcc  sciSetBaudrate                        
00020dac  sciSetFunctional                      
00018394  sci_display                           
08015dcc  sem1                                  
0001fac0  setupFlash                            
0001f9ec  setupPLL                              
00023e10  smallDelay                            
0002679d  sprintf                               
000267dd  sqrt                                  
000267dd  sqrtl                                 
0000c9f8  stats_init                            
08013ce4  step                                  
0002687d  strchr                                
00026893  strlen                                
00016d5c  sys_arch_protect                      
00016d74  sys_arch_unprotect                    
00023488  sys_check_timeouts                    
00016d90  sys_now                               
0002358c  sys_restart_timeouts                  
000231e8  sys_timeout                           
000231a4  sys_timeouts_init                     
0002338c  sys_untimeout                         
0001fea8  systemGetConfigValue                  
0001fcdc  systemInit                            
0001fd50  systemPowerDown                       
0000cf1c  tcp_abandon                           
0000d060  tcp_abort                             
0000e78c  tcp_accept                            
08013ce8  tcp_active_pcbs                       
08013bdb  tcp_active_pcbs_changed               
0000e52c  tcp_alloc                             
0000e70c  tcp_arg                               
000274bc  tcp_backoff                           
0000d078  tcp_bind                              
08013cec  tcp_bound_pcbs                        
0000ce08  tcp_close                             
0000d64c  tcp_connect                           
0000ea64  tcp_debug_state_str                   
0000e9f8  tcp_eff_send_mss                      
0001248c  tcp_enqueue_flags                     
0000e76c  tcp_err                               
0000e038  tcp_fasttmr                           
0000c9fc  tcp_init                              
0000ea8c  tcp_input                             
08013cf0  tcp_input_pcb                         
0001314c  tcp_keepalive                         
08013cf4  tcp_listen_pcbs                       
0000d22c  tcp_listen_with_backlog               
0000e6fc  tcp_new                               
0000e9d0  tcp_next_iss                          
000127c8  tcp_output                            
000274ac  tcp_pcb_lists                         
0000e7dc  tcp_pcb_purge                         
0000e8a4  tcp_pcb_remove                        
000274c9  tcp_persist_backoff                   
0000e7ac  tcp_poll                              
0000e11c  tcp_process_refused_data              
0000e72c  tcp_recv                              
0000e33c  tcp_recv_null                         
0000d4ec  tcp_recved                            
00012f90  tcp_rexmit                            
00013070  tcp_rexmit_fast                       
00012ef8  tcp_rexmit_rto                        
00012de8  tcp_rst                               
0000e2f0  tcp_seg_copy                          
0000e290  tcp_seg_free                          
0000e250  tcp_segs_free                         
000126f4  tcp_send_empty_ack                    
0001192c  tcp_send_fin                          
0000e74c  tcp_sent                              
0000e2d0  tcp_setprio                           
0000ce40  tcp_shutdown                          
0000d940  tcp_slowtmr                           
000273f0  tcp_state_str                         
08013cf8  tcp_ticks                             
000230f0  tcp_timer_needed                      
08013cfc  tcp_tmp_pcb                           
0000ca00  tcp_tmr                               
08013d00  tcp_tw_pcbs                           
0000d410  tcp_update_rcv_ann_wnd                
00011d8c  tcp_write                             
00013208  tcp_zero_window_probe                 
08013d04  temp                                  
08015db0  time_gap_set                          
08015db8  time_left                             
0001fa4c  trimLPO                               
08013d08  txtIPAddrItoA                         
00018c60  udpTask                               
00013c3c  udp_bind                              
00013da0  udp_connect                           
08015dc0  udp_delay                             
00013ea0  udp_disconnect                        
00018bf4  udp_echo_recv                         
000133ac  udp_init                              
00013464  udp_input                             
00013fb0  udp_new                               
08013d0c  udp_pcbs                              
00013ed8  udp_recv                              
00013f08  udp_remove                            
00013968  udp_send                              
00013994  udp_sendto                            
00013a00  udp_sendto_if                         
08015e34  ulCriticalNesting                     
00004974  ulPortCountLeadingZeros               
08015e38  ulTaskHasFPUContext                   
00002390  ulTaskNotifyTake                      
00025198  uxListRemove                          
00003910  uxQueueMessagesWaiting                
00003994  uxQueueMessagesWaitingFromISR         
00003948  uxQueueSpacesAvailable                
00001348  uxTaskGetNumberOfTasks                
0000223c  uxTaskGetStackHighWaterMark           
00000994  uxTaskPriorityGet                     
000009d8  uxTaskPriorityGetFromISR              
00002354  uxTaskResetEventItemValue             
0000456c  vEventGroupClearBitsCallback          
000044cc  vEventGroupDelete                     
00004550  vEventGroupSetBitsCallback            
00024fec  vListInitialise                       
00025044  vListInitialiseItem                   
000250d4  vListInsert                           
00025060  vListInsertEnd                        
00004e4c  vPortEndScheduler                     
000050d8  vPortFree                             
000051e8  vPortInitialiseBlocks                 
00004968  vPortInitialiseFPSCR                  
00004868  vPortPreemptiveTick                   
0000497c  vPortSWI                              
000045f8  vPortStartFirstTask                   
00004bb8  vPortStoreTaskMPUSettings             
00004774  vPortYeildWithinAPI                   
00004688  vPortYieldProcessor                   
000039c4  vQueueDelete                          
00018548  vTask1                                
0001871c  vTask2                                
00018978  vTask3                                
00002064  vTaskAllocateMPURegions               
0000080c  vTaskDelay                            
000006a0  vTaskDelayUntil                       
00000538  vTaskDelete                           
00001084  vTaskEndScheduler                     
00001f08  vTaskMissedYield                      
00002954  vTaskNotifyGiveFromISR                
00001ad0  vTaskPlaceOnEventList                 
00001b14  vTaskPlaceOnUnorderedEventList        
00000a20  vTaskPrioritySet                      
00000e20  vTaskResume                           
00001f94  vTaskSetThreadLocalStoragePointer     
00001d90  vTaskSetTimeOutState                  
00000fec  vTaskStartScheduler                   
0000166c  vTaskStepTick                         
00000c18  vTaskSuspend                          
000010a0  vTaskSuspendAll                       
000019f0  vTaskSwitchContext                    
08013d10  value                                 
00020458  vimChannelMap                         
000206c4  vimDisableInterrupt                   
00024538  vimECCErrorHandler                    
000204fc  vimEnableInterrupt                    
00020770  vimGetConfigValue                     
00020384  vimInit                               
00018484  wait                                  
000184c8  wait_66us                             
00018508  wait_us                               
000268a9  wcslen                                
08013d14  weight                                
08015dc4  weight_delay                          
00004268  xEventGroupClearBits                  
00003dd8  xEventGroupCreate                     
000042ec  xEventGroupGetBitsFromISR             
0000431c  xEventGroupSetBits                    
00003e14  xEventGroupSync                       
00004014  xEventGroupWaitBits                   
000051d0  xPortGetFreeHeapSize                  
000051dc  xPortGetMinimumEverFreeHeapSize       
00004e2c  xPortStartScheduler                   
00002d24  xQueueGenericCreate                   
000033fc  xQueueGenericReceive                  
00002bfc  xQueueGenericReset                    
00002e40  xQueueGenericSend                     
00003100  xQueueGenericSendFromISR              
00003290  xQueueGiveFromISR                     
00003cfc  xQueueIsQueueEmptyFromISR             
00003d88  xQueueIsQueueFullFromISR              
0000381c  xQueuePeekFromISR                     
000036d4  xQueueReceiveFromISR                  
08015dc8  xSemaphore                            
08013d18  xTask2Handle                          
08013d1c  xTask4Handle                          
000016c8  xTaskAbortDelay                       
00001dd0  xTaskCheckForTimeOut                  
000000fc  xTaskCreate                           
00000020  xTaskCreateRestricted                 
00002580  xTaskGenericNotify                    
00002754  xTaskGenericNotifyFromISR             
0000152c  xTaskGetHandle                        
00001634  xTaskGetIdleTaskHandle                
00002304  xTaskGetSchedulerState                
00001308  xTaskGetTickCount                     
00001324  xTaskGetTickCountFromISR              
000017c8  xTaskIncrementTick                    
000257e8  xTaskNotifyStateClear                 
00002468  xTaskNotifyWait                       
00001b98  xTaskRemoveFromEventList              
00001c88  xTaskRemoveFromUnorderedEventList     
00001158  xTaskResumeAll                        
00000f04  xTaskResumeFromISR                    


GLOBAL SYMBOLS: SORTED BY Symbol Address 

address   name                                  
-------   ----                                  
00000000  __TI_static_base__                    
00000000  resetEntry                            
00000020  xTaskCreateRestricted                 
000000fc  xTaskCreate                           
00000538  vTaskDelete                           
000006a0  vTaskDelayUntil                       
0000080c  vTaskDelay                            
00000890  eTaskGetState                         
00000994  uxTaskPriorityGet                     
000009d8  uxTaskPriorityGetFromISR              
00000a20  vTaskPrioritySet                      
00000c18  vTaskSuspend                          
00000e20  vTaskResume                           
00000f04  xTaskResumeFromISR                    
00000fec  vTaskStartScheduler                   
00001084  vTaskEndScheduler                     
000010a0  vTaskSuspendAll                       
00001158  xTaskResumeAll                        
00001308  xTaskGetTickCount                     
00001324  xTaskGetTickCountFromISR              
00001348  uxTaskGetNumberOfTasks                
00001354  pcTaskGetName                         
0000152c  xTaskGetHandle                        
00001634  xTaskGetIdleTaskHandle                
0000166c  vTaskStepTick                         
000016c8  xTaskAbortDelay                       
000017c8  xTaskIncrementTick                    
000019f0  vTaskSwitchContext                    
00001ad0  vTaskPlaceOnEventList                 
00001b14  vTaskPlaceOnUnorderedEventList        
00001b98  xTaskRemoveFromEventList              
00001c88  xTaskRemoveFromUnorderedEventList     
00001d90  vTaskSetTimeOutState                  
00001dd0  xTaskCheckForTimeOut                  
00001f08  vTaskMissedYield                      
00001f18  eTaskConfirmSleepModeStatus           
00001f94  vTaskSetThreadLocalStoragePointer     
00001ff8  pvTaskGetThreadLocalStoragePointer    
00002064  vTaskAllocateMPURegions               
0000223c  uxTaskGetStackHighWaterMark           
00002304  xTaskGetSchedulerState                
00002354  uxTaskResetEventItemValue             
00002390  ulTaskNotifyTake                      
00002468  xTaskNotifyWait                       
00002580  xTaskGenericNotify                    
00002754  xTaskGenericNotifyFromISR             
00002954  vTaskNotifyGiveFromISR                
00002bfc  xQueueGenericReset                    
00002d24  xQueueGenericCreate                   
00002e40  xQueueGenericSend                     
00003100  xQueueGenericSendFromISR              
00003290  xQueueGiveFromISR                     
000033fc  xQueueGenericReceive                  
000036d4  xQueueReceiveFromISR                  
0000381c  xQueuePeekFromISR                     
00003910  uxQueueMessagesWaiting                
00003948  uxQueueSpacesAvailable                
00003994  uxQueueMessagesWaitingFromISR         
000039c4  vQueueDelete                          
00003cfc  xQueueIsQueueEmptyFromISR             
00003d88  xQueueIsQueueFullFromISR              
00003dd8  xEventGroupCreate                     
00003e14  xEventGroupSync                       
00004014  xEventGroupWaitBits                   
00004268  xEventGroupClearBits                  
000042ec  xEventGroupGetBitsFromISR             
0000431c  xEventGroupSetBits                    
000044cc  vEventGroupDelete                     
00004550  vEventGroupSetBitsCallback            
0000456c  vEventGroupClearBitsCallback          
000045f8  vPortStartFirstTask                   
00004688  vPortYieldProcessor                   
00004774  vPortYeildWithinAPI                   
00004868  vPortPreemptiveTick                   
00004968  vPortInitialiseFPSCR                  
00004974  ulPortCountLeadingZeros               
0000497c  vPortSWI                              
00004a4c  prvMpuSetRegion                       
00004a64  prvMpuEnable                          
00004a7c  prvMpuDisable                         
00004aa4  pxPortInitialiseStack                 
00004bb8  vPortStoreTaskMPUSettings             
00004e2c  xPortStartScheduler                   
00004e4c  vPortEndScheduler                     
00004e80  pvPortMalloc                          
000050d8  vPortFree                             
000051d0  xPortGetFreeHeapSize                  
000051dc  xPortGetMinimumEverFreeHeapSize       
000051e8  vPortInitialiseBlocks                 
00005244  __TI_Handler_Table_Base               
00005250  __TI_Handler_Table_Limit              
00005270  __TI_CINIT_Base                       
00005290  __TI_CINIT_Limit                      
00008270  dhcp_coarse_tmr                       
00008304  dhcp_fine_tmr                         
0000868c  dhcp_set_struct                       
000086b8  dhcp_cleanup                          
000086ec  dhcp_start                            
00008878  dhcp_inform                           
000089c4  dhcp_network_changed                  
00008de8  dhcp_renew                            
00009164  dhcp_release                          
000092d8  dhcp_stop                             
0000a1d0  lwip_init                             
0000a338  mem_init                              
0000a3e8  mem_free                              
0000a4c0  mem_trim                              
0000a7ac  mem_malloc                            
0000aa80  mem_calloc                            
0000aad0  memp_init                             
0000ac38  memp_malloc                           
0000ad40  memp_free                             
0000adb8  netif_init                            
0000adc0  netif_add                             
0000ae9c  netif_set_addr                        
0000aee0  netif_remove                          
0000afd0  netif_find                            
0000b084  netif_set_ipaddr                      
0000b1e8  netif_set_gw                          
0000b228  netif_set_netmask                     
0000b260  netif_set_default                     
0000b288  netif_set_up                          
0000b2e4  netif_set_down                        
0000b32c  netif_set_link_up                     
0000b3a0  netif_set_link_down                   
0000b3d8  pbuf_free_ooseq                       
0000b480  pbuf_alloc                            
0000b7e8  pbuf_realloc                          
0000b92c  pbuf_header                           
0000babc  pbuf_free                             
0000bbd0  pbuf_clen                             
0000bc1c  pbuf_ref                              
0000bc54  pbuf_cat                              
0000bce4  pbuf_chain                            
0000bd08  pbuf_dechain                          
0000bd98  pbuf_copy                             
0000bf94  pbuf_copy_partial                     
0000c104  pbuf_take                             
0000c220  pbuf_coalesce                         
0000c290  pbuf_get_at                           
0000c334  pbuf_memcmp                           
0000c448  pbuf_memfind                          
0000c4f4  pbuf_strstr                           
0000c574  raw_input                             
0000c6bc  raw_bind                              
0000c6f8  raw_connect                           
0000c734  raw_recv                              
0000c764  raw_sendto                            
0000c8c0  raw_send                              
0000c8e4  raw_remove                            
0000c98c  raw_new                               
0000c9f8  stats_init                            
0000c9fc  tcp_init                              
0000ca00  tcp_tmr                               
0000ce08  tcp_close                             
0000ce40  tcp_shutdown                          
0000cf1c  tcp_abandon                           
0000d060  tcp_abort                             
0000d078  tcp_bind                              
0000d22c  tcp_listen_with_backlog               
0000d410  tcp_update_rcv_ann_wnd                
0000d4ec  tcp_recved                            
0000d64c  tcp_connect                           
0000d940  tcp_slowtmr                           
0000e038  tcp_fasttmr                           
0000e11c  tcp_process_refused_data              
0000e250  tcp_segs_free                         
0000e290  tcp_seg_free                          
0000e2d0  tcp_setprio                           
0000e2f0  tcp_seg_copy                          
0000e33c  tcp_recv_null                         
0000e52c  tcp_alloc                             
0000e6fc  tcp_new                               
0000e70c  tcp_arg                               
0000e72c  tcp_recv                              
0000e74c  tcp_sent                              
0000e76c  tcp_err                               
0000e78c  tcp_accept                            
0000e7ac  tcp_poll                              
0000e7dc  tcp_pcb_purge                         
0000e8a4  tcp_pcb_remove                        
0000e9d0  tcp_next_iss                          
0000e9f8  tcp_eff_send_mss                      
0000ea64  tcp_debug_state_str                   
0000ea8c  tcp_input                             
0001192c  tcp_send_fin                          
00011d8c  tcp_write                             
0001248c  tcp_enqueue_flags                     
000126f4  tcp_send_empty_ack                    
000127c8  tcp_output                            
00012de8  tcp_rst                               
00012ef8  tcp_rexmit_rto                        
00012f90  tcp_rexmit                            
00013070  tcp_rexmit_fast                       
0001314c  tcp_keepalive                         
00013208  tcp_zero_window_probe                 
000133ac  udp_init                              
00013464  udp_input                             
00013968  udp_send                              
00013994  udp_sendto                            
00013a00  udp_sendto_if                         
00013c3c  udp_bind                              
00013da0  udp_connect                           
00013ea0  udp_disconnect                        
00013ed8  udp_recv                              
00013f08  udp_remove                            
00013fb0  udp_new                               
00013ff0  icmp_input                            
00014350  icmp_dest_unreach                     
000145c4  inet_chksum_pseudo                    
00014788  inet_chksum_pseudo_partial            
00014974  inet_chksum                           
0001499c  inet_chksum_pbuf                      
00014a98  ip_route                              
00014b94  ip_input                              
00015024  ip_output_if                          
000152a8  ip_output                             
00015324  ip4_addr_isbroadcast                  
000153f4  ip4_addr_netmask_valid                
00015488  ipaddr_addr                           
000154b4  ipaddr_aton                           
000157e0  ipaddr_ntoa                           
000157fc  ipaddr_ntoa_r                         
000159e4  etharp_tmr                            
00015ff4  etharp_cleanup_netif                  
00016078  etharp_find_addr                      
0001646c  etharp_output                         
000166ec  etharp_query                          
00016b48  etharp_request                        
00016ba4  ethernet_input                        
00016d4c  perf_init                             
00016d5c  sys_arch_protect                      
00016d74  sys_arch_unprotect                    
00016d90  sys_now                               
00016da8  hdkif_swizzle_data                    
00016df0  hdkif_swizzle_txp                     
00016e04  hdkif_swizzle_rxp                     
00016e18  hdkif_macaddrset                      
0001775c  hdkif_init                            
000177fc  hdkif_rx_inthandler                   
00017b88  hdkif_tx_inthandler                   
00017ce8  hdkif_netif_status                    
00017d14  hdkif_link_status                     
00017ed4  LocatorConfig                         
00018070  lwIPInit                              
000182ac  lwIPNetIfStatusGet                    
000182cc  lwIPLinkStatusGet                     
000182f4  lwIPRxIntHandler                      
00018314  lwIPTxIntHandler                      
00018394  sci_display                           
000183f4  delay_us                              
0001843c  delay_ms                              
00018484  wait                                  
000184c8  wait_66us                             
00018508  wait_us                               
00018548  vTask1                                
0001871c  vTask2                                
00018978  vTask3                                
00018a78  main                                  
00018bf4  udp_echo_recv                         
00018c60  udpTask                               
00018dcc  pwmNotification                       
000195b8  lcd_command                           
00019644  lcd_char                              
00019758  lcd_char_variable                     
00019868  lcd_string                            
000198fc  lcd_init                              
00019b80  gioNotification                       
00019ba8  decode_ir                             
00019ca0  remote_data_calc                      
0001ad48  EMACTxIntPulseEnable                  
0001ada4  EMACTxIntPulseDisable                 
0001ae00  EMACRxIntPulseEnable                  
0001ae5c  EMACRxIntPulseDisable                 
0001aeb8  EMACRMIISpeedSet                      
0001aef8  EMACMIIEnable                         
0001af1c  EMACMIIDisable                        
0001af40  EMACDuplexSet                         
0001af80  EMACTxEnable                          
0001af9c  EMACTxDisable                         
0001afb8  EMACRxEnable                          
0001afd4  EMACRxDisable                         
0001aff0  EMACTxHdrDescPtrWrite                 
0001b01c  EMACRxHdrDescPtrWrite                 
0001b048  EMACInit                              
0001b184  EMACMACSrcAddrSet                     
0001b1e8  EMACMACAddrSet                        
0001b270  EMACCoreIntAck                        
0001b290  EMACTxCPWrite                         
0001b2bc  EMACRxCPWrite                         
0001b2e8  EMACRxBroadCastEnable                 
0001b32c  EMACRxBroadCastDisable                
0001b368  EMACRxMultiCastEnable                 
0001b3ac  EMACRxMultiCastDisable                
0001b3e8  EMACRxUnicastSet                      
0001b418  EMACRxUnicastClear                    
0001b448  EMACNumFreeBufSet                     
0001b474  EMACIntVectorGet                      
0001b48c  EMACInstConfig                        
0001b4f0  EMACLinkSetup                         
0001b5c8  EMACTxTeardown                        
0001b5f4  EMACRxTeardown                        
0001b620  EMACFrameSelect                       
0001b64c  EMACTxPrioritySelect                  
0001b6ac  EMACSoftReset                         
0001b6f8  EMACEnableIdleState                   
0001b71c  EMACDisableIdleState                  
0001b740  EMACEnableLoopback                    
0001b7a8  EMACDisableLoopback                   
0001b810  EMACTxFlowControlEnable               
0001b834  EMACTxFlowControlDisable              
0001b858  EMACRxFlowControlEnable               
0001b87c  EMACRxFlowControlDisable              
0001b8a0  EMACSwizzleData                       
0001b8b8  EMACRxSetFlowThreshold                
0001b90c  EMACReadNetStatRegisters              
0001b930  EMACTxIntStat                         
0001b980  EMACRxIntStat                         
0001ba10  EMACDMAInit                           
0001bc08  EMACHWInit                            
0001bf04  EMACTransmit                          
0001c104  EMACTxIntHandler                      
0001c21c  EMACReceive                           
0001c3bc  EMACGetConfigValue                    
0001c560  hetInit                               
0001c6e4  pwmStart                              
0001c718  pwmStop                               
0001c74c  pwmSetDuty                            
0001c89c  pwmSetSignal                          
0001ca4c  pwmGetSignal                          
0001cb2c  pwmEnableNotification                 
0001cb74  pwmDisableNotification                
0001cba4  edgeResetCounter                      
0001cbd0  edgeGetCounter                        
0001cbfc  edgeEnableNotification                
0001cc38  edgeDisableNotification               
0001cc80  capGetSignal                          
0001cd58  hetResetTimestamp                     
0001cd74  hetGetTimestamp                       
0001cd8c  het1GetConfigValue                    
0001cf1c  het2GetConfigValue                    
0001d140  adcInit                               
0001d29c  adcStartConversion                    
0001d320  adcStopConversion                     
0001d348  adcResetFiFo                          
0001d370  adcGetData                            
0001d538  adcIsFifoFull                         
0001d568  adcIsConversionComplete               
0001d598  adcCalibration                        
0001d770  adcMidPointCalibration                
0001d90c  adcEnableNotification                 
0001d95c  adcDisableNotification                
0001d984  adcSetEVTPin                          
0001d9a4  adcGetEVTPin                          
0001d9bc  adc1GetConfigValue                    
0001dc2d  __TI_printfi                          
0001e65f  __aeabi_idiv0                         
0001e65f  __aeabi_ldiv0                         
0001e660  muxInit                               
0001f04c  MPU_xTaskCreate                       
0001f0b0  MPU_xTaskCreateRestricted             
0001f0f4  MPU_vTaskAllocateMPURegions           
0001f128  MPU_vTaskDelete                       
0001f154  MPU_vTaskDelay                        
0001f180  MPU_vTaskDelayUntil                   
0001f1b4  MPU_xTaskAbortDelay                   
0001f1e8  MPU_uxTaskPriorityGet                 
0001f21c  MPU_eTaskGetState                     
0001f250  MPU_vTaskPrioritySet                  
0001f284  MPU_vTaskSuspend                      
0001f2b0  MPU_vTaskResume                       
0001f2dc  MPU_vTaskSuspendAll                   
0001f300  MPU_xTaskResumeAll                    
0001f32c  MPU_xTaskGetTickCount                 
0001f358  MPU_uxTaskGetNumberOfTasks            
0001f384  MPU_pcTaskGetName                     
0001f3b8  MPU_xTaskGetHandle                    
0001f3ec  MPU_uxTaskGetStackHighWaterMark       
0001f420  MPU_vTaskSetThreadLocalStoragePointer 
0001f464  MPU_pvTaskGetThreadLocalStoragePointer
0001f4a8  MPU_xTaskGetIdleTaskHandle            
0001f4d4  MPU_xTaskGenericNotify                
0001f528  MPU_xTaskNotifyWait                   
0001f57c  MPU_ulTaskNotifyTake                  
0001f5c0  MPU_xTaskNotifyStateClear             
0001f5f4  MPU_vTaskSetTimeOutState              
0001f620  MPU_xTaskCheckForTimeOut              
0001f664  MPU_xTaskGetSchedulerState            
0001f690  MPU_xQueueGenericSend                 
0001f6e4  MPU_xQueueGenericReceive              
0001f738  MPU_uxQueueMessagesWaiting            
0001f76c  MPU_uxQueueSpacesAvailable            
0001f7a0  MPU_vQueueDelete                      
0001f7cc  MPU_xQueueGenericCreate               
0001f818  MPU_xQueueGenericReset                
0001f85c  MPU_xEventGroupCreate                 
0001f888  MPU_xEventGroupWaitBits               
0001f8e4  MPU_xEventGroupClearBits              
0001f928  MPU_xEventGroupSetBits                
0001f96c  MPU_xEventGroupSync                   
0001f9c0  MPU_vEventGroupDelete                 
0001f9ec  setupPLL                              
0001fa4c  trimLPO                               
0001fac0  setupFlash                            
0001fb00  periphInit                            
0001fbb4  mapClocks                             
0001fcdc  systemInit                            
0001fd50  systemPowerDown                       
0001fd80  getResetSource                        
0001fea8  systemGetConfigValue                  
000202d8  customTrimLPO                         
00020384  vimInit                               
00020458  vimChannelMap                         
000204fc  vimEnableInterrupt                    
000206c4  vimDisableInterrupt                   
00020770  vimGetConfigValue                     
00020cc0  sciInit                               
00020dac  sciSetFunctional                      
00020dcc  sciSetBaudrate                        
00020e68  sciIsTxReady                          
00020e84  sciSendByte                           
00020eb4  sciSend                               
00021018  sciIsRxReady                          
00021034  sciIsIdleDetected                     
00021050  sciRxError                            
00021080  sciReceiveByte                        
000210ac  sciReceive                            
000211bc  sciEnableLoopback                     
000211f0  sciDisableLoopback                    
0002120c  sciEnableNotification                 
000212a4  sciDisableNotification                
0002133c  sciEnterResetState                    
0002135c  sciExitResetState                     
0002137c  sci1GetConfigValue                    
00021530  esmInit                               
0002168c  esmError                              
000216a8  esmEnableError                        
000216d0  esmEnableErrorUpper                   
000216ec  esmDisableError                       
00021714  esmDisableErrorUpper                  
00021730  esmTriggerErrorPinReset               
00021740  esmActivateNormalOperation            
00021750  esmEnableInterrupt                    
00021778  esmEnableInterruptUpper               
00021794  esmDisableInterrupt                   
000217bc  esmDisableInterruptUpper              
000217d8  esmSetInterruptLevel                  
0002184c  esmSetInterruptLevelUpper             
0002188c  esmClearStatus                        
000218cc  esmClearStatusUpper                   
000218f0  esmClearStatusBuffer                  
0002190c  esmSetCounterPreloadValue             
0002192c  esmGetStatus                          
000219b0  esmGetStatusUpper                     
000219f8  esmGetStatusBuffer                    
00021a20  esmEnterSelfTest                      
00021aa8  esmSelfTestStatus                     
00021af8  esmGetConfigValue                     
00021cbc  Dp83640IDGet                          
00021d34  Dp83640LinkStatusGet                  
00021e14  Dp83640AutoNegotiate                  
00021fa4  Dp83640PartnerAbilityGet              
00021fcc  Dp83640Reset                          
00022040  Dp83640EnableLoopback                 
000220d8  Dp83640DisableLoopback                
00022164  Dp83640GetTimeStamp                   
00022388  Dp83640PartnerSpdGet                  
000223b1  pow                                   
000223b1  powl                                  
00022a3c  _errata_SSWF021_45_both_plls          
00022c30  _errata_SSWF021_45_pll1               
00022da8  _errata_SSWF021_45_pll2               
000230f0  tcp_timer_needed                      
000231a4  sys_timeouts_init                     
000231e8  sys_timeout                           
0002338c  sys_untimeout                         
00023488  sys_check_timeouts                    
0002358c  sys_restart_timeouts                  
000235c8  gioInit                               
00023698  gioSetDirection                       
000236b8  gioSetBit                             
00023708  gioSetPort                            
00023728  gioGetBit                             
00023750  gioGetPort                            
00023768  gioToggleBit                          
000237c0  gioEnableNotification                 
00023828  gioDisableNotification                
00023890  gioGetConfigValue                     
00023a4c  _coreInitRegisters_                   
00023b58  _coreInitStackPointer_                
00023ba4  _getCPSRValue_                        
00023bac  _gotoCPUIdle_                         
00023bc4  _coreEnableVfp_                       
00023bdc  _coreEnableEventBusExport_            
00023bec  _coreDisableEventBusExport_           
00023bfc  _coreEnableIrqVicOffset_              
00023c0c  _coreGetDataFault_                    
00023c14  _coreClearDataFault_                  
00023c20  _coreGetInstructionFault_             
00023c28  _coreClearInstructionFault_           
00023c34  _coreGetDataFaultAddress_             
00023c3c  _coreClearDataFaultAddress_           
00023c48  _coreGetInstructionFaultAddress_      
00023c50  _coreClearInstructionFaultAddress_    
00023c5c  _coreGetAuxiliaryDataFault_           
00023c64  _coreClearAuxiliaryDataFault_         
00023c70  _coreGetAuxiliaryInstructionFault_    
00023c78  _coreClearAuxiliaryInstructionFault_  
00023c84  _disable_IRQ_interrupt_               
00023c8c  _enable_IRQ_interrupt_                
00023c94  _enable_interrupt_                    
00023c9c  _esmCcmErrorsClear_                   
00023d24  _memInit_                             
00023d58  _checkMemInitOn_                      
00023d78  _cacheEnable_                         
00023dbc  _cacheDisable_                        
00023de0  _dCacheInvalidate_                    
00023df4  _iCacheInvalidate_                    
00023e08  __TI_PINIT_Base                       
00023e0c  __TI_PINIT_Limit                      
00023e10  smallDelay                            
00023e50  EMAC_LwIP_Main                        
00023ee8  iommUnlock                            
00023f04  iommLock                              
00023f20  iommMuxEnableMdio                     
00023f3c  iommMuxEnableRmii                     
00023f88  iommMuxEnableMii                      
000240b4  IntMasterIRQEnable                    
000240bc  IntMasterIRQDisable                   
000240c4  IntMasterStatusGet                    
000240d0  sciDisplayText                        
00024130  sciNotification                       
000241cc  _mpuInit_                             
00024484  _mpuEnable_                           
0002449c  _mpuDisable_                          
000244b4  _mpuEnableBackgroundRegion_           
000244c4  _mpuDisableBackgroundRegion_          
000244d4  _mpuGetNumberOfRegions_               
000244e0  _mpuAreRegionsSeparate_               
000244ec  _mpuSetRegion_                        
000244f4  _mpuGetRegion_                        
000244fc  _mpuSetRegionBaseAddress_             
00024504  _mpuGetRegionBaseAddress_             
0002450c  _mpuSetRegionTypeAndPermission_       
00024518  _mpuGetRegionType_                    
00024524  _mpuGetRegionPermission_              
00024530  _mpuSetRegionSizeRegister_            
00024538  vimECCErrorHandler                    
00024874  __aeabi_uldivmod                      
00024fec  vListInitialise                       
00025044  vListInitialiseItem                   
00025060  vListInsertEnd                        
000250d4  vListInsert                           
00025198  uxListRemove                          
00025224  MDIOPhyRegRead                        
000252bc  MDIOPhyRegWrite                       
00025324  MDIOPhyAliveStatusGet                 
0002533c  MDIOPhyLinkStatusGet                  
00025354  MDIOInit                              
0002539c  MDIOEnable                            
000253c0  MDIODisable                           
00025588  esmHighInterrupt                      
000257e8  xTaskNotifyStateClear                 
00025864  het2HighLevelInterrupt                
0002590c  het2LowLevelInterrupt                 
00025afc  esmGroup1Notification                 
00025b10  esmGroup2Notification                 
00025b24  esmGroup3Notification                 
00025b34  dmaGroupANotification                 
00025b48  adcNotification                       
00025b9c  edgeNotification                      
00025bb0  hetNotification                       
00025bc4  etpwmNotification                     
00025bd4  etpwmTripNotification                 
00025be8  eqepNotification                      
00025bfc  epcCAMFullNotification                
00025c00  epcFIFOFullNotification               
00025c10  emacTxNotification                    
00025c20  emacRxNotification                    
00025e31  ldexp                                 
00025e31  ldexpl                                
00025e31  scalbn                                
00025e31  scalbnl                               
00025f21  floor                                 
00025f21  floorl                                
00026000  _c_int00                              
00026184  EMACCore0RxIsr                        
000261d0  EMACCore0TxIsr                        
00026225  __aeabi_memcpy                        
00026225  __aeabi_memcpy4                       
00026225  __aeabi_memcpy8                       
00026225  memcpy                                
000262c0  gioHighLevelInterrupt                 
000263d3  __aeabi_memclr                        
000263d3  __aeabi_memclr4                       
000263d3  __aeabi_memclr8                       
000263d5  __aeabi_memset                        
000263d5  __aeabi_memset4                       
000263d5  __aeabi_memset8                       
000263db  memset                                
0002644d  frexp                                 
0002644d  frexpl                                
000264c1  __TI_decompress_lzss                  
00026581  ltoa                                  
000265d4  __aeabi_idiv                          
000265d4  __aeabi_idivmod                       
00026679  atoi                                  
000266c8  __aeabi_uidiv                         
000266c8  __aeabi_uidivmod                      
00026719  __TI_auto_init_nobinit_nopinit        
0002679d  sprintf                               
000267dd  sqrt                                  
000267dd  sqrtl                                 
00026809  memcmp                                
0002682f  memccpy                               
00026865  copysign                              
00026865  copysignl                             
0002687d  strchr                                
00026893  strlen                                
000268a9  wcslen                                
000268bb  __TI_decompress_none                  
000268c9  __TI_zero_init                        
000268e1  __aeabi_errno_addr                    
000268e8  handlePLLLockFail                     
000268ed  C$$EXIT                               
000268ed  abort                                 
000268f0  phantomInterrupt                      
00027240  _ctypes_                              
000273f0  tcp_state_str                         
000274ac  tcp_pcb_lists                         
000274bc  tcp_backoff                           
000274c9  tcp_persist_backoff                   
000274d0  ethbroadcast                          
000274d6  ethzero                               
000274e8  ip_addr_any                           
000274ec  ip_addr_broadcast                     
08000920  pxCurrentTCB                          
08001000  ram_heap                              
080138cc  lwip_stats                            
080139b6  drop_before                           
080139b7  pbuf_free_ooseq_pending               
08013b68  hdkif_data                            
08013bdb  tcp_active_pcbs_changed               
08013c10  dhcp_rx_options_val                   
08013c58  drop_time_array                       
08013c98  dhcp_rx_options_given                 
08013cac  adc_data                              
08013cb8  cnt                                   
08013cbc  current_header                        
08013cc0  current_iphdr_dest                    
08013cc4  current_iphdr_src                     
08013cc8  current_netif                         
08013ccc  drop_time_avg                         
08013cd0  netif_default                         
08013cd4  netif_list                            
08013cd8  ontime                                
08013cdc  p                                     
08013ce0  pcb                                   
08013ce4  step                                  
08013ce8  tcp_active_pcbs                       
08013cec  tcp_bound_pcbs                        
08013cf0  tcp_input_pcb                         
08013cf4  tcp_listen_pcbs                       
08013cf8  tcp_ticks                             
08013cfc  tcp_tmp_pcb                           
08013d00  tcp_tw_pcbs                           
08013d04  temp                                  
08013d08  txtIPAddrItoA                         
08013d0c  udp_pcbs                              
08013d10  value                                 
08013d14  weight                                
08013d18  xTask2Handle                          
08013d1c  xTask4Handle                          
08015d20  bitcount                              
08015d9a  emacAddress                           
08015da0  remote_now                            
08015da4  decode                                
08015da8  drop_count                            
08015dac  drop_sens_timing                      
08015db0  time_gap_set                          
08015db8  time_left                             
08015dc0  udp_delay                             
08015dc4  weight_delay                          
08015dc8  xSemaphore                            
08015dcc  sem1                                  
08015dd0  emacPhyAddress                        
08015de8  msg                                   
08015e14  letter                                
08015e2c  countEMACCore0RxIsr                   
08015e30  countEMACCore0TxIsr                   
08015e34  ulCriticalNesting                     
08015e38  ulTaskHasFPUContext                   
08015e3c  errno                                 
ffffffff  __TI_pprof_out_hndl                   
ffffffff  __TI_prof_data_size                   
ffffffff  __TI_prof_data_start                  
ffffffff  __binit__                             
ffffffff  __c_args__                            
ffffffff  binit                                 
UNDEFED   SHT$$INIT_ARRAY$$Base                 
UNDEFED   SHT$$INIT_ARRAY$$Limit                
UNDEFED   _system_post_cinit                    

[702 symbols]
